

Microchip Technology PIC LITE Macro Assembler V1.45 build -152302408 
                                                                                               Thu Apr 19 00:52:25 2018

Microchip Technology Omniscient Code Generator v1.45 (Free mode) build 201711160504
     1                           	processor	16F1769
     2                           	opt	pw 120
     3                           	opt	lm
     4                           	psect	idataBANK0,global,class=CODE,delta=2
     5                           	psect	idataBANK1,global,class=CODE,delta=2
     6                           	psect	idataBANK2,global,class=CODE,delta=2
     7                           	psect	idataBIGRAM,global,class=CODE,delta=2
     8                           	psect	cinit,global,class=CODE,merge=1,delta=2
     9                           	psect	dataBANK0,global,class=BANK0,space=1,delta=1
    10                           	psect	dataBANK1,global,class=BANK1,space=1,delta=1
    11                           	psect	dataBANK2,global,class=BANK2,space=1,delta=1
    12                           	psect	inittext,global,class=CODE,delta=2
    13                           	psect	cstackCOMMON,global,class=COMMON,space=1,delta=1
    14                           	psect	cstackBANK0,global,class=BANK0,space=1,delta=1
    15                           	psect	maintext,global,class=CODE,merge=1,split=1,delta=2
    16                           	psect	text1,local,class=CODE,merge=1,delta=2
    17                           	psect	text2,local,class=CODE,merge=1,inline,delta=2
    18                           	psect	text3,local,class=CODE,merge=1,delta=2,group=1
    19                           	psect	text4,local,class=CODE,merge=1,delta=2,group=1
    20                           	psect	text5,local,class=CODE,merge=1,delta=2
    21                           	psect	text6,local,class=CODE,merge=1,delta=2
    22                           	psect	text7,local,class=CODE,merge=1,delta=2
    23                           	psect	text8,local,class=CODE,merge=1,delta=2
    24                           	psect	text9,local,class=CODE,merge=1,delta=2
    25                           	psect	text10,local,class=CODE,merge=1,delta=2
    26                           	psect	text11,local,class=CODE,merge=1,delta=2
    27                           	psect	text12,local,class=CODE,merge=1,delta=2
    28                           	dabs	1,0x620,48
    29                           	dabs	1,0x5A0,80
    30                           	dabs	1,0x520,80
    31                           	dabs	1,0x4A0,80
    32                           	dabs	1,0x420,80
    33                           	dabs	1,0x3A0,80
    34                           	dabs	1,0x330,64
    35                           	dabs	1,0x21F0,0,_ucp_tab
    36                           	dabs	1,0x7E,2
    37  0000                     
    38                           ; Version 1.45
    39                           ; Generated 16/11/2017 GMT
    40                           ; 
    41                           ; Copyright © 2017, Microchip Technology Inc. and its subsidiaries ("Microchip")
    42                           ; All rights reserved.
    43                           ; 
    44                           ; This software is developed by Microchip Technology Inc. and its subsidiaries ("Microch
      +                          ip").
    45                           ; 
    46                           ; Redistribution and use in source and binary forms, with or without modification, are
    47                           ; permitted provided that the following conditions are met:
    48                           ; 
    49                           ;     1. Redistributions of source code must retain the above copyright notice, this lis
      +                          t of
    50                           ;        conditions and the following disclaimer.
    51                           ; 
    52                           ;     2. Redistributions in binary form must reproduce the above copyright notice, this 
      +                          list
    53                           ;        of conditions and the following disclaimer in the documentation and/or other
    54                           ;        materials provided with the distribution.
    55                           ; 
    56                           ;     3. Microchip's name may not be used to endorse or promote products derived from th
      +                          is
    57                           ;        software without specific prior written permission.
    58                           ; 
    59                           ; THIS SOFTWARE IS PROVIDED BY MICROCHIP "AS IS" AND ANY EXPRESS OR IMPLIED WARRANTIES,
    60                           ; INCLUDING, BUT NOT LIMITED TO, THE IMPLIED WARRANTIES OF MERCHANTABILITY AND FITNESS F
      +                          OR
    61                           ; PURPOSE ARE DISCLAIMED.  IN NO EVENT SHALL MICROCHIP BE LIABLE FOR ANY DIRECT, INDIREC
      +                          T,
    62                           ; INCIDENTAL, SPECIAL, EXEMPLARY, OR CONSEQUENTIAL DAMAGES (INCLUDING BUT NOT LIMITED TO
    63                           ; PROCUREMENT OF SUBSTITUTE GOODS OR SERVICES; LOSS OF USE, DATA OR PROFITS; OR BUSINESS
    64                           ; INTERRUPTION) HOWSOEVER CAUSED AND ON ANY THEORY OF LIABILITY, WHETHER IN CONTRACT, ST
      +                          RICT
    65                           ; LIABILITY, OR TORT (INCLUDING NEGLIGENCE OR OTHERWISE) ARISING IN ANY WAY OUT OF THE U
      +                          SE OF
    66                           ; THIS SOFTWARE, EVEN IF ADVISED OF THE POSSIBILITY OF SUCH DAMAGE.
    67                           ; 
    68                           ; 
    69                           ; Code-generator required, PIC16F1769 Definitions
    70                           ; 
    71                           ; SFR Addresses
    72  0000                     	;# 
    73  0001                     	;# 
    74  0002                     	;# 
    75  0003                     	;# 
    76  0004                     	;# 
    77  0005                     	;# 
    78  0006                     	;# 
    79  0007                     	;# 
    80  0008                     	;# 
    81  0009                     	;# 
    82  000A                     	;# 
    83  000B                     	;# 
    84  000C                     	;# 
    85  000D                     	;# 
    86  000E                     	;# 
    87  0011                     	;# 
    88  0012                     	;# 
    89  0013                     	;# 
    90  0014                     	;# 
    91  0015                     	;# 
    92  0016                     	;# 
    93  0016                     	;# 
    94  0017                     	;# 
    95  0018                     	;# 
    96  0019                     	;# 
    97  001A                     	;# 
    98  001A                     	;# 
    99  001B                     	;# 
   100  001B                     	;# 
   101  001C                     	;# 
   102  001D                     	;# 
   103  001E                     	;# 
   104  001F                     	;# 
   105  008C                     	;# 
   106  008D                     	;# 
   107  008E                     	;# 
   108  0091                     	;# 
   109  0092                     	;# 
   110  0093                     	;# 
   111  0094                     	;# 
   112  0095                     	;# 
   113  0096                     	;# 
   114  0097                     	;# 
   115  0098                     	;# 
   116  0099                     	;# 
   117  009A                     	;# 
   118  009B                     	;# 
   119  009B                     	;# 
   120  009C                     	;# 
   121  009D                     	;# 
   122  009E                     	;# 
   123  009F                     	;# 
   124  010C                     	;# 
   125  010D                     	;# 
   126  010E                     	;# 
   127  010F                     	;# 
   128  0110                     	;# 
   129  0111                     	;# 
   130  0112                     	;# 
   131  0113                     	;# 
   132  0114                     	;# 
   133  0115                     	;# 
   134  0116                     	;# 
   135  0117                     	;# 
   136  0118                     	;# 
   137  0119                     	;# 
   138  011A                     	;# 
   139  011B                     	;# 
   140  011C                     	;# 
   141  011D                     	;# 
   142  011E                     	;# 
   143  011F                     	;# 
   144  018C                     	;# 
   145  018D                     	;# 
   146  018E                     	;# 
   147  0191                     	;# 
   148  0191                     	;# 
   149  0192                     	;# 
   150  0193                     	;# 
   151  0193                     	;# 
   152  0194                     	;# 
   153  0195                     	;# 
   154  0196                     	;# 
   155  0197                     	;# 
   156  0199                     	;# 
   157  0199                     	;# 
   158  0199                     	;# 
   159  019A                     	;# 
   160  019A                     	;# 
   161  019A                     	;# 
   162  019B                     	;# 
   163  019B                     	;# 
   164  019B                     	;# 
   165  019B                     	;# 
   166  019B                     	;# 
   167  019C                     	;# 
   168  019C                     	;# 
   169  019C                     	;# 
   170  019D                     	;# 
   171  019D                     	;# 
   172  019D                     	;# 
   173  019E                     	;# 
   174  019E                     	;# 
   175  019E                     	;# 
   176  019F                     	;# 
   177  019F                     	;# 
   178  019F                     	;# 
   179  019F                     	;# 
   180  019F                     	;# 
   181  020C                     	;# 
   182  020D                     	;# 
   183  020E                     	;# 
   184  0211                     	;# 
   185  0211                     	;# 
   186  0212                     	;# 
   187  0212                     	;# 
   188  0213                     	;# 
   189  0213                     	;# 
   190  0214                     	;# 
   191  0214                     	;# 
   192  0215                     	;# 
   193  0215                     	;# 
   194  0215                     	;# 
   195  0215                     	;# 
   196  0216                     	;# 
   197  0216                     	;# 
   198  0217                     	;# 
   199  0217                     	;# 
   200  021D                     	;# 
   201  021E                     	;# 
   202  021F                     	;# 
   203  028C                     	;# 
   204  028D                     	;# 
   205  028E                     	;# 
   206  0291                     	;# 
   207  0291                     	;# 
   208  0292                     	;# 
   209  0293                     	;# 
   210  0294                     	;# 
   211  0298                     	;# 
   212  0298                     	;# 
   213  0299                     	;# 
   214  029A                     	;# 
   215  029B                     	;# 
   216  029E                     	;# 
   217  030C                     	;# 
   218  030D                     	;# 
   219  030E                     	;# 
   220  031B                     	;# 
   221  031C                     	;# 
   222  031D                     	;# 
   223  031E                     	;# 
   224  031F                     	;# 
   225  038C                     	;# 
   226  038D                     	;# 
   227  038E                     	;# 
   228  0391                     	;# 
   229  0392                     	;# 
   230  0393                     	;# 
   231  0394                     	;# 
   232  0395                     	;# 
   233  0396                     	;# 
   234  0397                     	;# 
   235  0398                     	;# 
   236  0399                     	;# 
   237  039B                     	;# 
   238  039C                     	;# 
   239  039D                     	;# 
   240  039E                     	;# 
   241  039F                     	;# 
   242  040E                     	;# 
   243  0413                     	;# 
   244  0413                     	;# 
   245  0414                     	;# 
   246  0414                     	;# 
   247  0415                     	;# 
   248  0416                     	;# 
   249  0417                     	;# 
   250  0418                     	;# 
   251  041A                     	;# 
   252  041A                     	;# 
   253  041B                     	;# 
   254  041B                     	;# 
   255  041C                     	;# 
   256  041D                     	;# 
   257  041E                     	;# 
   258  041F                     	;# 
   259  0493                     	;# 
   260  0493                     	;# 
   261  0494                     	;# 
   262  0495                     	;# 
   263  0496                     	;# 
   264  049A                     	;# 
   265  049A                     	;# 
   266  049B                     	;# 
   267  049C                     	;# 
   268  049D                     	;# 
   269  050F                     	;# 
   270  0510                     	;# 
   271  0511                     	;# 
   272  0512                     	;# 
   273  0513                     	;# 
   274  0514                     	;# 
   275  0515                     	;# 
   276  0516                     	;# 
   277  0590                     	;# 
   278  0591                     	;# 
   279  0592                     	;# 
   280  0592                     	;# 
   281  0592                     	;# 
   282  0593                     	;# 
   283  0593                     	;# 
   284  0594                     	;# 
   285  0595                     	;# 
   286  0595                     	;# 
   287  0595                     	;# 
   288  0596                     	;# 
   289  0596                     	;# 
   290  0597                     	;# 
   291  0598                     	;# 
   292  0598                     	;# 
   293  0599                     	;# 
   294  059A                     	;# 
   295  059A                     	;# 
   296  0617                     	;# 
   297  0618                     	;# 
   298  0619                     	;# 
   299  061A                     	;# 
   300  061B                     	;# 
   301  061C                     	;# 
   302  068D                     	;# 
   303  068E                     	;# 
   304  068F                     	;# 
   305  0690                     	;# 
   306  0691                     	;# 
   307  0692                     	;# 
   308  0693                     	;# 
   309  0694                     	;# 
   310  0695                     	;# 
   311  0696                     	;# 
   312  0697                     	;# 
   313  0698                     	;# 
   314  0699                     	;# 
   315  069A                     	;# 
   316  069B                     	;# 
   317  069C                     	;# 
   318  069D                     	;# 
   319  069E                     	;# 
   320  069F                     	;# 
   321  070D                     	;# 
   322  070E                     	;# 
   323  070F                     	;# 
   324  0710                     	;# 
   325  0711                     	;# 
   326  0712                     	;# 
   327  0713                     	;# 
   328  0714                     	;# 
   329  0715                     	;# 
   330  0716                     	;# 
   331  0717                     	;# 
   332  0718                     	;# 
   333  0719                     	;# 
   334  071A                     	;# 
   335  071B                     	;# 
   336  071C                     	;# 
   337  071D                     	;# 
   338  071E                     	;# 
   339  071F                     	;# 
   340  0794                     	;# 
   341  0795                     	;# 
   342  0796                     	;# 
   343  0797                     	;# 
   344  0798                     	;# 
   345  0799                     	;# 
   346  079A                     	;# 
   347  079B                     	;# 
   348  079C                     	;# 
   349  079D                     	;# 
   350  079E                     	;# 
   351  079F                     	;# 
   352  0D8E                     	;# 
   353  0D8F                     	;# 
   354  0D90                     	;# 
   355  0D91                     	;# 
   356  0D91                     	;# 
   357  0D92                     	;# 
   358  0D93                     	;# 
   359  0D93                     	;# 
   360  0D94                     	;# 
   361  0D95                     	;# 
   362  0D95                     	;# 
   363  0D96                     	;# 
   364  0D97                     	;# 
   365  0D97                     	;# 
   366  0D98                     	;# 
   367  0D99                     	;# 
   368  0D99                     	;# 
   369  0D9A                     	;# 
   370  0D9B                     	;# 
   371  0D9C                     	;# 
   372  0D9C                     	;# 
   373  0D9D                     	;# 
   374  0D9D                     	;# 
   375  0D9E                     	;# 
   376  0D9F                     	;# 
   377  0DA0                     	;# 
   378  0DA1                     	;# 
   379  0DA1                     	;# 
   380  0DA2                     	;# 
   381  0DA3                     	;# 
   382  0DA3                     	;# 
   383  0DA4                     	;# 
   384  0DA5                     	;# 
   385  0DA5                     	;# 
   386  0DA6                     	;# 
   387  0DA7                     	;# 
   388  0DA7                     	;# 
   389  0DA8                     	;# 
   390  0DA9                     	;# 
   391  0DA9                     	;# 
   392  0DAA                     	;# 
   393  0DAB                     	;# 
   394  0DAC                     	;# 
   395  0DAC                     	;# 
   396  0DAD                     	;# 
   397  0DAD                     	;# 
   398  0DAE                     	;# 
   399  0DAF                     	;# 
   400  0DB0                     	;# 
   401  0E0F                     	;# 
   402  0E10                     	;# 
   403  0E11                     	;# 
   404  0E12                     	;# 
   405  0E13                     	;# 
   406  0E14                     	;# 
   407  0E15                     	;# 
   408  0E16                     	;# 
   409  0E17                     	;# 
   410  0E19                     	;# 
   411  0E19                     	;# 
   412  0E19                     	;# 
   413  0E1A                     	;# 
   414  0E1B                     	;# 
   415  0E1C                     	;# 
   416  0E1C                     	;# 
   417  0E1C                     	;# 
   418  0E1D                     	;# 
   419  0E1E                     	;# 
   420  0E1F                     	;# 
   421  0E1F                     	;# 
   422  0E1F                     	;# 
   423  0E20                     	;# 
   424  0E21                     	;# 
   425  0E22                     	;# 
   426  0E24                     	;# 
   427  0E25                     	;# 
   428  0E28                     	;# 
   429  0E29                     	;# 
   430  0E2A                     	;# 
   431  0E2B                     	;# 
   432  0E2C                     	;# 
   433  0E2D                     	;# 
   434  0E2E                     	;# 
   435  0E2F                     	;# 
   436  0E30                     	;# 
   437  0E31                     	;# 
   438  0E32                     	;# 
   439  0E33                     	;# 
   440  0E34                     	;# 
   441  0E35                     	;# 
   442  0E90                     	;# 
   443  0E91                     	;# 
   444  0E92                     	;# 
   445  0E94                     	;# 
   446  0E95                     	;# 
   447  0E9C                     	;# 
   448  0E9D                     	;# 
   449  0E9E                     	;# 
   450  0E9F                     	;# 
   451  0EA0                     	;# 
   452  0EA1                     	;# 
   453  0EA2                     	;# 
   454  0EA3                     	;# 
   455  0EA4                     	;# 
   456  0EA5                     	;# 
   457  0EA6                     	;# 
   458  0EA7                     	;# 
   459  0F0F                     	;# 
   460  0F10                     	;# 
   461  0F11                     	;# 
   462  0F12                     	;# 
   463  0F13                     	;# 
   464  0F14                     	;# 
   465  0F15                     	;# 
   466  0F16                     	;# 
   467  0F17                     	;# 
   468  0F18                     	;# 
   469  0F19                     	;# 
   470  0F1A                     	;# 
   471  0F1B                     	;# 
   472  0F1C                     	;# 
   473  0F1D                     	;# 
   474  0F1E                     	;# 
   475  0F1F                     	;# 
   476  0F20                     	;# 
   477  0F21                     	;# 
   478  0F22                     	;# 
   479  0F23                     	;# 
   480  0F24                     	;# 
   481  0F25                     	;# 
   482  0F26                     	;# 
   483  0F27                     	;# 
   484  0F28                     	;# 
   485  0F29                     	;# 
   486  0F2A                     	;# 
   487  0F2B                     	;# 
   488  0F2C                     	;# 
   489  0F2D                     	;# 
   490  0FE4                     	;# 
   491  0FE5                     	;# 
   492  0FE6                     	;# 
   493  0FE7                     	;# 
   494  0FE8                     	;# 
   495  0FE9                     	;# 
   496  0FEA                     	;# 
   497  0FEB                     	;# 
   498  0FED                     	;# 
   499  0FEE                     	;# 
   500  0FEF                     	;# 
   501  0000                     	;# 
   502  0001                     	;# 
   503  0002                     	;# 
   504  0003                     	;# 
   505  0004                     	;# 
   506  0005                     	;# 
   507  0006                     	;# 
   508  0007                     	;# 
   509  0008                     	;# 
   510  0009                     	;# 
   511  000A                     	;# 
   512  000B                     	;# 
   513  000C                     	;# 
   514  000D                     	;# 
   515  000E                     	;# 
   516  0011                     	;# 
   517  0012                     	;# 
   518  0013                     	;# 
   519  0014                     	;# 
   520  0015                     	;# 
   521  0016                     	;# 
   522  0016                     	;# 
   523  0017                     	;# 
   524  0018                     	;# 
   525  0019                     	;# 
   526  001A                     	;# 
   527  001A                     	;# 
   528  001B                     	;# 
   529  001B                     	;# 
   530  001C                     	;# 
   531  001D                     	;# 
   532  001E                     	;# 
   533  001F                     	;# 
   534  008C                     	;# 
   535  008D                     	;# 
   536  008E                     	;# 
   537  0091                     	;# 
   538  0092                     	;# 
   539  0093                     	;# 
   540  0094                     	;# 
   541  0095                     	;# 
   542  0096                     	;# 
   543  0097                     	;# 
   544  0098                     	;# 
   545  0099                     	;# 
   546  009A                     	;# 
   547  009B                     	;# 
   548  009B                     	;# 
   549  009C                     	;# 
   550  009D                     	;# 
   551  009E                     	;# 
   552  009F                     	;# 
   553  010C                     	;# 
   554  010D                     	;# 
   555  010E                     	;# 
   556  010F                     	;# 
   557  0110                     	;# 
   558  0111                     	;# 
   559  0112                     	;# 
   560  0113                     	;# 
   561  0114                     	;# 
   562  0115                     	;# 
   563  0116                     	;# 
   564  0117                     	;# 
   565  0118                     	;# 
   566  0119                     	;# 
   567  011A                     	;# 
   568  011B                     	;# 
   569  011C                     	;# 
   570  011D                     	;# 
   571  011E                     	;# 
   572  011F                     	;# 
   573  018C                     	;# 
   574  018D                     	;# 
   575  018E                     	;# 
   576  0191                     	;# 
   577  0191                     	;# 
   578  0192                     	;# 
   579  0193                     	;# 
   580  0193                     	;# 
   581  0194                     	;# 
   582  0195                     	;# 
   583  0196                     	;# 
   584  0197                     	;# 
   585  0199                     	;# 
   586  0199                     	;# 
   587  0199                     	;# 
   588  019A                     	;# 
   589  019A                     	;# 
   590  019A                     	;# 
   591  019B                     	;# 
   592  019B                     	;# 
   593  019B                     	;# 
   594  019B                     	;# 
   595  019B                     	;# 
   596  019C                     	;# 
   597  019C                     	;# 
   598  019C                     	;# 
   599  019D                     	;# 
   600  019D                     	;# 
   601  019D                     	;# 
   602  019E                     	;# 
   603  019E                     	;# 
   604  019E                     	;# 
   605  019F                     	;# 
   606  019F                     	;# 
   607  019F                     	;# 
   608  019F                     	;# 
   609  019F                     	;# 
   610  020C                     	;# 
   611  020D                     	;# 
   612  020E                     	;# 
   613  0211                     	;# 
   614  0211                     	;# 
   615  0212                     	;# 
   616  0212                     	;# 
   617  0213                     	;# 
   618  0213                     	;# 
   619  0214                     	;# 
   620  0214                     	;# 
   621  0215                     	;# 
   622  0215                     	;# 
   623  0215                     	;# 
   624  0215                     	;# 
   625  0216                     	;# 
   626  0216                     	;# 
   627  0217                     	;# 
   628  0217                     	;# 
   629  021D                     	;# 
   630  021E                     	;# 
   631  021F                     	;# 
   632  028C                     	;# 
   633  028D                     	;# 
   634  028E                     	;# 
   635  0291                     	;# 
   636  0291                     	;# 
   637  0292                     	;# 
   638  0293                     	;# 
   639  0294                     	;# 
   640  0298                     	;# 
   641  0298                     	;# 
   642  0299                     	;# 
   643  029A                     	;# 
   644  029B                     	;# 
   645  029E                     	;# 
   646  030C                     	;# 
   647  030D                     	;# 
   648  030E                     	;# 
   649  031B                     	;# 
   650  031C                     	;# 
   651  031D                     	;# 
   652  031E                     	;# 
   653  031F                     	;# 
   654  038C                     	;# 
   655  038D                     	;# 
   656  038E                     	;# 
   657  0391                     	;# 
   658  0392                     	;# 
   659  0393                     	;# 
   660  0394                     	;# 
   661  0395                     	;# 
   662  0396                     	;# 
   663  0397                     	;# 
   664  0398                     	;# 
   665  0399                     	;# 
   666  039B                     	;# 
   667  039C                     	;# 
   668  039D                     	;# 
   669  039E                     	;# 
   670  039F                     	;# 
   671  040E                     	;# 
   672  0413                     	;# 
   673  0413                     	;# 
   674  0414                     	;# 
   675  0414                     	;# 
   676  0415                     	;# 
   677  0416                     	;# 
   678  0417                     	;# 
   679  0418                     	;# 
   680  041A                     	;# 
   681  041A                     	;# 
   682  041B                     	;# 
   683  041B                     	;# 
   684  041C                     	;# 
   685  041D                     	;# 
   686  041E                     	;# 
   687  041F                     	;# 
   688  0493                     	;# 
   689  0493                     	;# 
   690  0494                     	;# 
   691  0495                     	;# 
   692  0496                     	;# 
   693  049A                     	;# 
   694  049A                     	;# 
   695  049B                     	;# 
   696  049C                     	;# 
   697  049D                     	;# 
   698  050F                     	;# 
   699  0510                     	;# 
   700  0511                     	;# 
   701  0512                     	;# 
   702  0513                     	;# 
   703  0514                     	;# 
   704  0515                     	;# 
   705  0516                     	;# 
   706  0590                     	;# 
   707  0591                     	;# 
   708  0592                     	;# 
   709  0592                     	;# 
   710  0592                     	;# 
   711  0593                     	;# 
   712  0593                     	;# 
   713  0594                     	;# 
   714  0595                     	;# 
   715  0595                     	;# 
   716  0595                     	;# 
   717  0596                     	;# 
   718  0596                     	;# 
   719  0597                     	;# 
   720  0598                     	;# 
   721  0598                     	;# 
   722  0599                     	;# 
   723  059A                     	;# 
   724  059A                     	;# 
   725  0617                     	;# 
   726  0618                     	;# 
   727  0619                     	;# 
   728  061A                     	;# 
   729  061B                     	;# 
   730  061C                     	;# 
   731  068D                     	;# 
   732  068E                     	;# 
   733  068F                     	;# 
   734  0690                     	;# 
   735  0691                     	;# 
   736  0692                     	;# 
   737  0693                     	;# 
   738  0694                     	;# 
   739  0695                     	;# 
   740  0696                     	;# 
   741  0697                     	;# 
   742  0698                     	;# 
   743  0699                     	;# 
   744  069A                     	;# 
   745  069B                     	;# 
   746  069C                     	;# 
   747  069D                     	;# 
   748  069E                     	;# 
   749  069F                     	;# 
   750  070D                     	;# 
   751  070E                     	;# 
   752  070F                     	;# 
   753  0710                     	;# 
   754  0711                     	;# 
   755  0712                     	;# 
   756  0713                     	;# 
   757  0714                     	;# 
   758  0715                     	;# 
   759  0716                     	;# 
   760  0717                     	;# 
   761  0718                     	;# 
   762  0719                     	;# 
   763  071A                     	;# 
   764  071B                     	;# 
   765  071C                     	;# 
   766  071D                     	;# 
   767  071E                     	;# 
   768  071F                     	;# 
   769  0794                     	;# 
   770  0795                     	;# 
   771  0796                     	;# 
   772  0797                     	;# 
   773  0798                     	;# 
   774  0799                     	;# 
   775  079A                     	;# 
   776  079B                     	;# 
   777  079C                     	;# 
   778  079D                     	;# 
   779  079E                     	;# 
   780  079F                     	;# 
   781  0D8E                     	;# 
   782  0D8F                     	;# 
   783  0D90                     	;# 
   784  0D91                     	;# 
   785  0D91                     	;# 
   786  0D92                     	;# 
   787  0D93                     	;# 
   788  0D93                     	;# 
   789  0D94                     	;# 
   790  0D95                     	;# 
   791  0D95                     	;# 
   792  0D96                     	;# 
   793  0D97                     	;# 
   794  0D97                     	;# 
   795  0D98                     	;# 
   796  0D99                     	;# 
   797  0D99                     	;# 
   798  0D9A                     	;# 
   799  0D9B                     	;# 
   800  0D9C                     	;# 
   801  0D9C                     	;# 
   802  0D9D                     	;# 
   803  0D9D                     	;# 
   804  0D9E                     	;# 
   805  0D9F                     	;# 
   806  0DA0                     	;# 
   807  0DA1                     	;# 
   808  0DA1                     	;# 
   809  0DA2                     	;# 
   810  0DA3                     	;# 
   811  0DA3                     	;# 
   812  0DA4                     	;# 
   813  0DA5                     	;# 
   814  0DA5                     	;# 
   815  0DA6                     	;# 
   816  0DA7                     	;# 
   817  0DA7                     	;# 
   818  0DA8                     	;# 
   819  0DA9                     	;# 
   820  0DA9                     	;# 
   821  0DAA                     	;# 
   822  0DAB                     	;# 
   823  0DAC                     	;# 
   824  0DAC                     	;# 
   825  0DAD                     	;# 
   826  0DAD                     	;# 
   827  0DAE                     	;# 
   828  0DAF                     	;# 
   829  0DB0                     	;# 
   830  0E0F                     	;# 
   831  0E10                     	;# 
   832  0E11                     	;# 
   833  0E12                     	;# 
   834  0E13                     	;# 
   835  0E14                     	;# 
   836  0E15                     	;# 
   837  0E16                     	;# 
   838  0E17                     	;# 
   839  0E19                     	;# 
   840  0E19                     	;# 
   841  0E19                     	;# 
   842  0E1A                     	;# 
   843  0E1B                     	;# 
   844  0E1C                     	;# 
   845  0E1C                     	;# 
   846  0E1C                     	;# 
   847  0E1D                     	;# 
   848  0E1E                     	;# 
   849  0E1F                     	;# 
   850  0E1F                     	;# 
   851  0E1F                     	;# 
   852  0E20                     	;# 
   853  0E21                     	;# 
   854  0E22                     	;# 
   855  0E24                     	;# 
   856  0E25                     	;# 
   857  0E28                     	;# 
   858  0E29                     	;# 
   859  0E2A                     	;# 
   860  0E2B                     	;# 
   861  0E2C                     	;# 
   862  0E2D                     	;# 
   863  0E2E                     	;# 
   864  0E2F                     	;# 
   865  0E30                     	;# 
   866  0E31                     	;# 
   867  0E32                     	;# 
   868  0E33                     	;# 
   869  0E34                     	;# 
   870  0E35                     	;# 
   871  0E90                     	;# 
   872  0E91                     	;# 
   873  0E92                     	;# 
   874  0E94                     	;# 
   875  0E95                     	;# 
   876  0E9C                     	;# 
   877  0E9D                     	;# 
   878  0E9E                     	;# 
   879  0E9F                     	;# 
   880  0EA0                     	;# 
   881  0EA1                     	;# 
   882  0EA2                     	;# 
   883  0EA3                     	;# 
   884  0EA4                     	;# 
   885  0EA5                     	;# 
   886  0EA6                     	;# 
   887  0EA7                     	;# 
   888  0F0F                     	;# 
   889  0F10                     	;# 
   890  0F11                     	;# 
   891  0F12                     	;# 
   892  0F13                     	;# 
   893  0F14                     	;# 
   894  0F15                     	;# 
   895  0F16                     	;# 
   896  0F17                     	;# 
   897  0F18                     	;# 
   898  0F19                     	;# 
   899  0F1A                     	;# 
   900  0F1B                     	;# 
   901  0F1C                     	;# 
   902  0F1D                     	;# 
   903  0F1E                     	;# 
   904  0F1F                     	;# 
   905  0F20                     	;# 
   906  0F21                     	;# 
   907  0F22                     	;# 
   908  0F23                     	;# 
   909  0F24                     	;# 
   910  0F25                     	;# 
   911  0F26                     	;# 
   912  0F27                     	;# 
   913  0F28                     	;# 
   914  0F29                     	;# 
   915  0F2A                     	;# 
   916  0F2B                     	;# 
   917  0F2C                     	;# 
   918  0F2D                     	;# 
   919  0FE4                     	;# 
   920  0FE5                     	;# 
   921  0FE6                     	;# 
   922  0FE7                     	;# 
   923  0FE8                     	;# 
   924  0FE9                     	;# 
   925  0FEA                     	;# 
   926  0FEB                     	;# 
   927  0FED                     	;# 
   928  0FEE                     	;# 
   929  0FEF                     	;# 
   930  0000                     	;# 
   931  0001                     	;# 
   932  0002                     	;# 
   933  0003                     	;# 
   934  0004                     	;# 
   935  0005                     	;# 
   936  0006                     	;# 
   937  0007                     	;# 
   938  0008                     	;# 
   939  0009                     	;# 
   940  000A                     	;# 
   941  000B                     	;# 
   942  000C                     	;# 
   943  000D                     	;# 
   944  000E                     	;# 
   945  0011                     	;# 
   946  0012                     	;# 
   947  0013                     	;# 
   948  0014                     	;# 
   949  0015                     	;# 
   950  0016                     	;# 
   951  0016                     	;# 
   952  0017                     	;# 
   953  0018                     	;# 
   954  0019                     	;# 
   955  001A                     	;# 
   956  001A                     	;# 
   957  001B                     	;# 
   958  001B                     	;# 
   959  001C                     	;# 
   960  001D                     	;# 
   961  001E                     	;# 
   962  001F                     	;# 
   963  008C                     	;# 
   964  008D                     	;# 
   965  008E                     	;# 
   966  0091                     	;# 
   967  0092                     	;# 
   968  0093                     	;# 
   969  0094                     	;# 
   970  0095                     	;# 
   971  0096                     	;# 
   972  0097                     	;# 
   973  0098                     	;# 
   974  0099                     	;# 
   975  009A                     	;# 
   976  009B                     	;# 
   977  009B                     	;# 
   978  009C                     	;# 
   979  009D                     	;# 
   980  009E                     	;# 
   981  009F                     	;# 
   982  010C                     	;# 
   983  010D                     	;# 
   984  010E                     	;# 
   985  010F                     	;# 
   986  0110                     	;# 
   987  0111                     	;# 
   988  0112                     	;# 
   989  0113                     	;# 
   990  0114                     	;# 
   991  0115                     	;# 
   992  0116                     	;# 
   993  0117                     	;# 
   994  0118                     	;# 
   995  0119                     	;# 
   996  011A                     	;# 
   997  011B                     	;# 
   998  011C                     	;# 
   999  011D                     	;# 
  1000  011E                     	;# 
  1001  011F                     	;# 
  1002  018C                     	;# 
  1003  018D                     	;# 
  1004  018E                     	;# 
  1005  0191                     	;# 
  1006  0191                     	;# 
  1007  0192                     	;# 
  1008  0193                     	;# 
  1009  0193                     	;# 
  1010  0194                     	;# 
  1011  0195                     	;# 
  1012  0196                     	;# 
  1013  0197                     	;# 
  1014  0199                     	;# 
  1015  0199                     	;# 
  1016  0199                     	;# 
  1017  019A                     	;# 
  1018  019A                     	;# 
  1019  019A                     	;# 
  1020  019B                     	;# 
  1021  019B                     	;# 
  1022  019B                     	;# 
  1023  019B                     	;# 
  1024  019B                     	;# 
  1025  019C                     	;# 
  1026  019C                     	;# 
  1027  019C                     	;# 
  1028  019D                     	;# 
  1029  019D                     	;# 
  1030  019D                     	;# 
  1031  019E                     	;# 
  1032  019E                     	;# 
  1033  019E                     	;# 
  1034  019F                     	;# 
  1035  019F                     	;# 
  1036  019F                     	;# 
  1037  019F                     	;# 
  1038  019F                     	;# 
  1039  020C                     	;# 
  1040  020D                     	;# 
  1041  020E                     	;# 
  1042  0211                     	;# 
  1043  0211                     	;# 
  1044  0212                     	;# 
  1045  0212                     	;# 
  1046  0213                     	;# 
  1047  0213                     	;# 
  1048  0214                     	;# 
  1049  0214                     	;# 
  1050  0215                     	;# 
  1051  0215                     	;# 
  1052  0215                     	;# 
  1053  0215                     	;# 
  1054  0216                     	;# 
  1055  0216                     	;# 
  1056  0217                     	;# 
  1057  0217                     	;# 
  1058  021D                     	;# 
  1059  021E                     	;# 
  1060  021F                     	;# 
  1061  028C                     	;# 
  1062  028D                     	;# 
  1063  028E                     	;# 
  1064  0291                     	;# 
  1065  0291                     	;# 
  1066  0292                     	;# 
  1067  0293                     	;# 
  1068  0294                     	;# 
  1069  0298                     	;# 
  1070  0298                     	;# 
  1071  0299                     	;# 
  1072  029A                     	;# 
  1073  029B                     	;# 
  1074  029E                     	;# 
  1075  030C                     	;# 
  1076  030D                     	;# 
  1077  030E                     	;# 
  1078  031B                     	;# 
  1079  031C                     	;# 
  1080  031D                     	;# 
  1081  031E                     	;# 
  1082  031F                     	;# 
  1083  038C                     	;# 
  1084  038D                     	;# 
  1085  038E                     	;# 
  1086  0391                     	;# 
  1087  0392                     	;# 
  1088  0393                     	;# 
  1089  0394                     	;# 
  1090  0395                     	;# 
  1091  0396                     	;# 
  1092  0397                     	;# 
  1093  0398                     	;# 
  1094  0399                     	;# 
  1095  039B                     	;# 
  1096  039C                     	;# 
  1097  039D                     	;# 
  1098  039E                     	;# 
  1099  039F                     	;# 
  1100  040E                     	;# 
  1101  0413                     	;# 
  1102  0413                     	;# 
  1103  0414                     	;# 
  1104  0414                     	;# 
  1105  0415                     	;# 
  1106  0416                     	;# 
  1107  0417                     	;# 
  1108  0418                     	;# 
  1109  041A                     	;# 
  1110  041A                     	;# 
  1111  041B                     	;# 
  1112  041B                     	;# 
  1113  041C                     	;# 
  1114  041D                     	;# 
  1115  041E                     	;# 
  1116  041F                     	;# 
  1117  0493                     	;# 
  1118  0493                     	;# 
  1119  0494                     	;# 
  1120  0495                     	;# 
  1121  0496                     	;# 
  1122  049A                     	;# 
  1123  049A                     	;# 
  1124  049B                     	;# 
  1125  049C                     	;# 
  1126  049D                     	;# 
  1127  050F                     	;# 
  1128  0510                     	;# 
  1129  0511                     	;# 
  1130  0512                     	;# 
  1131  0513                     	;# 
  1132  0514                     	;# 
  1133  0515                     	;# 
  1134  0516                     	;# 
  1135  0590                     	;# 
  1136  0591                     	;# 
  1137  0592                     	;# 
  1138  0592                     	;# 
  1139  0592                     	;# 
  1140  0593                     	;# 
  1141  0593                     	;# 
  1142  0594                     	;# 
  1143  0595                     	;# 
  1144  0595                     	;# 
  1145  0595                     	;# 
  1146  0596                     	;# 
  1147  0596                     	;# 
  1148  0597                     	;# 
  1149  0598                     	;# 
  1150  0598                     	;# 
  1151  0599                     	;# 
  1152  059A                     	;# 
  1153  059A                     	;# 
  1154  0617                     	;# 
  1155  0618                     	;# 
  1156  0619                     	;# 
  1157  061A                     	;# 
  1158  061B                     	;# 
  1159  061C                     	;# 
  1160  068D                     	;# 
  1161  068E                     	;# 
  1162  068F                     	;# 
  1163  0690                     	;# 
  1164  0691                     	;# 
  1165  0692                     	;# 
  1166  0693                     	;# 
  1167  0694                     	;# 
  1168  0695                     	;# 
  1169  0696                     	;# 
  1170  0697                     	;# 
  1171  0698                     	;# 
  1172  0699                     	;# 
  1173  069A                     	;# 
  1174  069B                     	;# 
  1175  069C                     	;# 
  1176  069D                     	;# 
  1177  069E                     	;# 
  1178  069F                     	;# 
  1179  070D                     	;# 
  1180  070E                     	;# 
  1181  070F                     	;# 
  1182  0710                     	;# 
  1183  0711                     	;# 
  1184  0712                     	;# 
  1185  0713                     	;# 
  1186  0714                     	;# 
  1187  0715                     	;# 
  1188  0716                     	;# 
  1189  0717                     	;# 
  1190  0718                     	;# 
  1191  0719                     	;# 
  1192  071A                     	;# 
  1193  071B                     	;# 
  1194  071C                     	;# 
  1195  071D                     	;# 
  1196  071E                     	;# 
  1197  071F                     	;# 
  1198  0794                     	;# 
  1199  0795                     	;# 
  1200  0796                     	;# 
  1201  0797                     	;# 
  1202  0798                     	;# 
  1203  0799                     	;# 
  1204  079A                     	;# 
  1205  079B                     	;# 
  1206  079C                     	;# 
  1207  079D                     	;# 
  1208  079E                     	;# 
  1209  079F                     	;# 
  1210  0D8E                     	;# 
  1211  0D8F                     	;# 
  1212  0D90                     	;# 
  1213  0D91                     	;# 
  1214  0D91                     	;# 
  1215  0D92                     	;# 
  1216  0D93                     	;# 
  1217  0D93                     	;# 
  1218  0D94                     	;# 
  1219  0D95                     	;# 
  1220  0D95                     	;# 
  1221  0D96                     	;# 
  1222  0D97                     	;# 
  1223  0D97                     	;# 
  1224  0D98                     	;# 
  1225  0D99                     	;# 
  1226  0D99                     	;# 
  1227  0D9A                     	;# 
  1228  0D9B                     	;# 
  1229  0D9C                     	;# 
  1230  0D9C                     	;# 
  1231  0D9D                     	;# 
  1232  0D9D                     	;# 
  1233  0D9E                     	;# 
  1234  0D9F                     	;# 
  1235  0DA0                     	;# 
  1236  0DA1                     	;# 
  1237  0DA1                     	;# 
  1238  0DA2                     	;# 
  1239  0DA3                     	;# 
  1240  0DA3                     	;# 
  1241  0DA4                     	;# 
  1242  0DA5                     	;# 
  1243  0DA5                     	;# 
  1244  0DA6                     	;# 
  1245  0DA7                     	;# 
  1246  0DA7                     	;# 
  1247  0DA8                     	;# 
  1248  0DA9                     	;# 
  1249  0DA9                     	;# 
  1250  0DAA                     	;# 
  1251  0DAB                     	;# 
  1252  0DAC                     	;# 
  1253  0DAC                     	;# 
  1254  0DAD                     	;# 
  1255  0DAD                     	;# 
  1256  0DAE                     	;# 
  1257  0DAF                     	;# 
  1258  0DB0                     	;# 
  1259  0E0F                     	;# 
  1260  0E10                     	;# 
  1261  0E11                     	;# 
  1262  0E12                     	;# 
  1263  0E13                     	;# 
  1264  0E14                     	;# 
  1265  0E15                     	;# 
  1266  0E16                     	;# 
  1267  0E17                     	;# 
  1268  0E19                     	;# 
  1269  0E19                     	;# 
  1270  0E19                     	;# 
  1271  0E1A                     	;# 
  1272  0E1B                     	;# 
  1273  0E1C                     	;# 
  1274  0E1C                     	;# 
  1275  0E1C                     	;# 
  1276  0E1D                     	;# 
  1277  0E1E                     	;# 
  1278  0E1F                     	;# 
  1279  0E1F                     	;# 
  1280  0E1F                     	;# 
  1281  0E20                     	;# 
  1282  0E21                     	;# 
  1283  0E22                     	;# 
  1284  0E24                     	;# 
  1285  0E25                     	;# 
  1286  0E28                     	;# 
  1287  0E29                     	;# 
  1288  0E2A                     	;# 
  1289  0E2B                     	;# 
  1290  0E2C                     	;# 
  1291  0E2D                     	;# 
  1292  0E2E                     	;# 
  1293  0E2F                     	;# 
  1294  0E30                     	;# 
  1295  0E31                     	;# 
  1296  0E32                     	;# 
  1297  0E33                     	;# 
  1298  0E34                     	;# 
  1299  0E35                     	;# 
  1300  0E90                     	;# 
  1301  0E91                     	;# 
  1302  0E92                     	;# 
  1303  0E94                     	;# 
  1304  0E95                     	;# 
  1305  0E9C                     	;# 
  1306  0E9D                     	;# 
  1307  0E9E                     	;# 
  1308  0E9F                     	;# 
  1309  0EA0                     	;# 
  1310  0EA1                     	;# 
  1311  0EA2                     	;# 
  1312  0EA3                     	;# 
  1313  0EA4                     	;# 
  1314  0EA5                     	;# 
  1315  0EA6                     	;# 
  1316  0EA7                     	;# 
  1317  0F0F                     	;# 
  1318  0F10                     	;# 
  1319  0F11                     	;# 
  1320  0F12                     	;# 
  1321  0F13                     	;# 
  1322  0F14                     	;# 
  1323  0F15                     	;# 
  1324  0F16                     	;# 
  1325  0F17                     	;# 
  1326  0F18                     	;# 
  1327  0F19                     	;# 
  1328  0F1A                     	;# 
  1329  0F1B                     	;# 
  1330  0F1C                     	;# 
  1331  0F1D                     	;# 
  1332  0F1E                     	;# 
  1333  0F1F                     	;# 
  1334  0F20                     	;# 
  1335  0F21                     	;# 
  1336  0F22                     	;# 
  1337  0F23                     	;# 
  1338  0F24                     	;# 
  1339  0F25                     	;# 
  1340  0F26                     	;# 
  1341  0F27                     	;# 
  1342  0F28                     	;# 
  1343  0F29                     	;# 
  1344  0F2A                     	;# 
  1345  0F2B                     	;# 
  1346  0F2C                     	;# 
  1347  0F2D                     	;# 
  1348  0FE4                     	;# 
  1349  0FE5                     	;# 
  1350  0FE6                     	;# 
  1351  0FE7                     	;# 
  1352  0FE8                     	;# 
  1353  0FE9                     	;# 
  1354  0FEA                     	;# 
  1355  0FEB                     	;# 
  1356  0FED                     	;# 
  1357  0FEE                     	;# 
  1358  0FEF                     	;# 
  1359  0000                     	;# 
  1360  0001                     	;# 
  1361  0002                     	;# 
  1362  0003                     	;# 
  1363  0004                     	;# 
  1364  0005                     	;# 
  1365  0006                     	;# 
  1366  0007                     	;# 
  1367  0008                     	;# 
  1368  0009                     	;# 
  1369  000A                     	;# 
  1370  000B                     	;# 
  1371  000C                     	;# 
  1372  000D                     	;# 
  1373  000E                     	;# 
  1374  0011                     	;# 
  1375  0012                     	;# 
  1376  0013                     	;# 
  1377  0014                     	;# 
  1378  0015                     	;# 
  1379  0016                     	;# 
  1380  0016                     	;# 
  1381  0017                     	;# 
  1382  0018                     	;# 
  1383  0019                     	;# 
  1384  001A                     	;# 
  1385  001A                     	;# 
  1386  001B                     	;# 
  1387  001B                     	;# 
  1388  001C                     	;# 
  1389  001D                     	;# 
  1390  001E                     	;# 
  1391  001F                     	;# 
  1392  008C                     	;# 
  1393  008D                     	;# 
  1394  008E                     	;# 
  1395  0091                     	;# 
  1396  0092                     	;# 
  1397  0093                     	;# 
  1398  0094                     	;# 
  1399  0095                     	;# 
  1400  0096                     	;# 
  1401  0097                     	;# 
  1402  0098                     	;# 
  1403  0099                     	;# 
  1404  009A                     	;# 
  1405  009B                     	;# 
  1406  009B                     	;# 
  1407  009C                     	;# 
  1408  009D                     	;# 
  1409  009E                     	;# 
  1410  009F                     	;# 
  1411  010C                     	;# 
  1412  010D                     	;# 
  1413  010E                     	;# 
  1414  010F                     	;# 
  1415  0110                     	;# 
  1416  0111                     	;# 
  1417  0112                     	;# 
  1418  0113                     	;# 
  1419  0114                     	;# 
  1420  0115                     	;# 
  1421  0116                     	;# 
  1422  0117                     	;# 
  1423  0118                     	;# 
  1424  0119                     	;# 
  1425  011A                     	;# 
  1426  011B                     	;# 
  1427  011C                     	;# 
  1428  011D                     	;# 
  1429  011E                     	;# 
  1430  011F                     	;# 
  1431  018C                     	;# 
  1432  018D                     	;# 
  1433  018E                     	;# 
  1434  0191                     	;# 
  1435  0191                     	;# 
  1436  0192                     	;# 
  1437  0193                     	;# 
  1438  0193                     	;# 
  1439  0194                     	;# 
  1440  0195                     	;# 
  1441  0196                     	;# 
  1442  0197                     	;# 
  1443  0199                     	;# 
  1444  0199                     	;# 
  1445  0199                     	;# 
  1446  019A                     	;# 
  1447  019A                     	;# 
  1448  019A                     	;# 
  1449  019B                     	;# 
  1450  019B                     	;# 
  1451  019B                     	;# 
  1452  019B                     	;# 
  1453  019B                     	;# 
  1454  019C                     	;# 
  1455  019C                     	;# 
  1456  019C                     	;# 
  1457  019D                     	;# 
  1458  019D                     	;# 
  1459  019D                     	;# 
  1460  019E                     	;# 
  1461  019E                     	;# 
  1462  019E                     	;# 
  1463  019F                     	;# 
  1464  019F                     	;# 
  1465  019F                     	;# 
  1466  019F                     	;# 
  1467  019F                     	;# 
  1468  020C                     	;# 
  1469  020D                     	;# 
  1470  020E                     	;# 
  1471  0211                     	;# 
  1472  0211                     	;# 
  1473  0212                     	;# 
  1474  0212                     	;# 
  1475  0213                     	;# 
  1476  0213                     	;# 
  1477  0214                     	;# 
  1478  0214                     	;# 
  1479  0215                     	;# 
  1480  0215                     	;# 
  1481  0215                     	;# 
  1482  0215                     	;# 
  1483  0216                     	;# 
  1484  0216                     	;# 
  1485  0217                     	;# 
  1486  0217                     	;# 
  1487  021D                     	;# 
  1488  021E                     	;# 
  1489  021F                     	;# 
  1490  028C                     	;# 
  1491  028D                     	;# 
  1492  028E                     	;# 
  1493  0291                     	;# 
  1494  0291                     	;# 
  1495  0292                     	;# 
  1496  0293                     	;# 
  1497  0294                     	;# 
  1498  0298                     	;# 
  1499  0298                     	;# 
  1500  0299                     	;# 
  1501  029A                     	;# 
  1502  029B                     	;# 
  1503  029E                     	;# 
  1504  030C                     	;# 
  1505  030D                     	;# 
  1506  030E                     	;# 
  1507  031B                     	;# 
  1508  031C                     	;# 
  1509  031D                     	;# 
  1510  031E                     	;# 
  1511  031F                     	;# 
  1512  038C                     	;# 
  1513  038D                     	;# 
  1514  038E                     	;# 
  1515  0391                     	;# 
  1516  0392                     	;# 
  1517  0393                     	;# 
  1518  0394                     	;# 
  1519  0395                     	;# 
  1520  0396                     	;# 
  1521  0397                     	;# 
  1522  0398                     	;# 
  1523  0399                     	;# 
  1524  039B                     	;# 
  1525  039C                     	;# 
  1526  039D                     	;# 
  1527  039E                     	;# 
  1528  039F                     	;# 
  1529  040E                     	;# 
  1530  0413                     	;# 
  1531  0413                     	;# 
  1532  0414                     	;# 
  1533  0414                     	;# 
  1534  0415                     	;# 
  1535  0416                     	;# 
  1536  0417                     	;# 
  1537  0418                     	;# 
  1538  041A                     	;# 
  1539  041A                     	;# 
  1540  041B                     	;# 
  1541  041B                     	;# 
  1542  041C                     	;# 
  1543  041D                     	;# 
  1544  041E                     	;# 
  1545  041F                     	;# 
  1546  0493                     	;# 
  1547  0493                     	;# 
  1548  0494                     	;# 
  1549  0495                     	;# 
  1550  0496                     	;# 
  1551  049A                     	;# 
  1552  049A                     	;# 
  1553  049B                     	;# 
  1554  049C                     	;# 
  1555  049D                     	;# 
  1556  050F                     	;# 
  1557  0510                     	;# 
  1558  0511                     	;# 
  1559  0512                     	;# 
  1560  0513                     	;# 
  1561  0514                     	;# 
  1562  0515                     	;# 
  1563  0516                     	;# 
  1564  0590                     	;# 
  1565  0591                     	;# 
  1566  0592                     	;# 
  1567  0592                     	;# 
  1568  0592                     	;# 
  1569  0593                     	;# 
  1570  0593                     	;# 
  1571  0594                     	;# 
  1572  0595                     	;# 
  1573  0595                     	;# 
  1574  0595                     	;# 
  1575  0596                     	;# 
  1576  0596                     	;# 
  1577  0597                     	;# 
  1578  0598                     	;# 
  1579  0598                     	;# 
  1580  0599                     	;# 
  1581  059A                     	;# 
  1582  059A                     	;# 
  1583  0617                     	;# 
  1584  0618                     	;# 
  1585  0619                     	;# 
  1586  061A                     	;# 
  1587  061B                     	;# 
  1588  061C                     	;# 
  1589  068D                     	;# 
  1590  068E                     	;# 
  1591  068F                     	;# 
  1592  0690                     	;# 
  1593  0691                     	;# 
  1594  0692                     	;# 
  1595  0693                     	;# 
  1596  0694                     	;# 
  1597  0695                     	;# 
  1598  0696                     	;# 
  1599  0697                     	;# 
  1600  0698                     	;# 
  1601  0699                     	;# 
  1602  069A                     	;# 
  1603  069B                     	;# 
  1604  069C                     	;# 
  1605  069D                     	;# 
  1606  069E                     	;# 
  1607  069F                     	;# 
  1608  070D                     	;# 
  1609  070E                     	;# 
  1610  070F                     	;# 
  1611  0710                     	;# 
  1612  0711                     	;# 
  1613  0712                     	;# 
  1614  0713                     	;# 
  1615  0714                     	;# 
  1616  0715                     	;# 
  1617  0716                     	;# 
  1618  0717                     	;# 
  1619  0718                     	;# 
  1620  0719                     	;# 
  1621  071A                     	;# 
  1622  071B                     	;# 
  1623  071C                     	;# 
  1624  071D                     	;# 
  1625  071E                     	;# 
  1626  071F                     	;# 
  1627  0794                     	;# 
  1628  0795                     	;# 
  1629  0796                     	;# 
  1630  0797                     	;# 
  1631  0798                     	;# 
  1632  0799                     	;# 
  1633  079A                     	;# 
  1634  079B                     	;# 
  1635  079C                     	;# 
  1636  079D                     	;# 
  1637  079E                     	;# 
  1638  079F                     	;# 
  1639  0D8E                     	;# 
  1640  0D8F                     	;# 
  1641  0D90                     	;# 
  1642  0D91                     	;# 
  1643  0D91                     	;# 
  1644  0D92                     	;# 
  1645  0D93                     	;# 
  1646  0D93                     	;# 
  1647  0D94                     	;# 
  1648  0D95                     	;# 
  1649  0D95                     	;# 
  1650  0D96                     	;# 
  1651  0D97                     	;# 
  1652  0D97                     	;# 
  1653  0D98                     	;# 
  1654  0D99                     	;# 
  1655  0D99                     	;# 
  1656  0D9A                     	;# 
  1657  0D9B                     	;# 
  1658  0D9C                     	;# 
  1659  0D9C                     	;# 
  1660  0D9D                     	;# 
  1661  0D9D                     	;# 
  1662  0D9E                     	;# 
  1663  0D9F                     	;# 
  1664  0DA0                     	;# 
  1665  0DA1                     	;# 
  1666  0DA1                     	;# 
  1667  0DA2                     	;# 
  1668  0DA3                     	;# 
  1669  0DA3                     	;# 
  1670  0DA4                     	;# 
  1671  0DA5                     	;# 
  1672  0DA5                     	;# 
  1673  0DA6                     	;# 
  1674  0DA7                     	;# 
  1675  0DA7                     	;# 
  1676  0DA8                     	;# 
  1677  0DA9                     	;# 
  1678  0DA9                     	;# 
  1679  0DAA                     	;# 
  1680  0DAB                     	;# 
  1681  0DAC                     	;# 
  1682  0DAC                     	;# 
  1683  0DAD                     	;# 
  1684  0DAD                     	;# 
  1685  0DAE                     	;# 
  1686  0DAF                     	;# 
  1687  0DB0                     	;# 
  1688  0E0F                     	;# 
  1689  0E10                     	;# 
  1690  0E11                     	;# 
  1691  0E12                     	;# 
  1692  0E13                     	;# 
  1693  0E14                     	;# 
  1694  0E15                     	;# 
  1695  0E16                     	;# 
  1696  0E17                     	;# 
  1697  0E19                     	;# 
  1698  0E19                     	;# 
  1699  0E19                     	;# 
  1700  0E1A                     	;# 
  1701  0E1B                     	;# 
  1702  0E1C                     	;# 
  1703  0E1C                     	;# 
  1704  0E1C                     	;# 
  1705  0E1D                     	;# 
  1706  0E1E                     	;# 
  1707  0E1F                     	;# 
  1708  0E1F                     	;# 
  1709  0E1F                     	;# 
  1710  0E20                     	;# 
  1711  0E21                     	;# 
  1712  0E22                     	;# 
  1713  0E24                     	;# 
  1714  0E25                     	;# 
  1715  0E28                     	;# 
  1716  0E29                     	;# 
  1717  0E2A                     	;# 
  1718  0E2B                     	;# 
  1719  0E2C                     	;# 
  1720  0E2D                     	;# 
  1721  0E2E                     	;# 
  1722  0E2F                     	;# 
  1723  0E30                     	;# 
  1724  0E31                     	;# 
  1725  0E32                     	;# 
  1726  0E33                     	;# 
  1727  0E34                     	;# 
  1728  0E35                     	;# 
  1729  0E90                     	;# 
  1730  0E91                     	;# 
  1731  0E92                     	;# 
  1732  0E94                     	;# 
  1733  0E95                     	;# 
  1734  0E9C                     	;# 
  1735  0E9D                     	;# 
  1736  0E9E                     	;# 
  1737  0E9F                     	;# 
  1738  0EA0                     	;# 
  1739  0EA1                     	;# 
  1740  0EA2                     	;# 
  1741  0EA3                     	;# 
  1742  0EA4                     	;# 
  1743  0EA5                     	;# 
  1744  0EA6                     	;# 
  1745  0EA7                     	;# 
  1746  0F0F                     	;# 
  1747  0F10                     	;# 
  1748  0F11                     	;# 
  1749  0F12                     	;# 
  1750  0F13                     	;# 
  1751  0F14                     	;# 
  1752  0F15                     	;# 
  1753  0F16                     	;# 
  1754  0F17                     	;# 
  1755  0F18                     	;# 
  1756  0F19                     	;# 
  1757  0F1A                     	;# 
  1758  0F1B                     	;# 
  1759  0F1C                     	;# 
  1760  0F1D                     	;# 
  1761  0F1E                     	;# 
  1762  0F1F                     	;# 
  1763  0F20                     	;# 
  1764  0F21                     	;# 
  1765  0F22                     	;# 
  1766  0F23                     	;# 
  1767  0F24                     	;# 
  1768  0F25                     	;# 
  1769  0F26                     	;# 
  1770  0F27                     	;# 
  1771  0F28                     	;# 
  1772  0F29                     	;# 
  1773  0F2A                     	;# 
  1774  0F2B                     	;# 
  1775  0F2C                     	;# 
  1776  0F2D                     	;# 
  1777  0FE4                     	;# 
  1778  0FE5                     	;# 
  1779  0FE6                     	;# 
  1780  0FE7                     	;# 
  1781  0FE8                     	;# 
  1782  0FE9                     	;# 
  1783  0FEA                     	;# 
  1784  0FEB                     	;# 
  1785  0FED                     	;# 
  1786  0FEE                     	;# 
  1787  0FEF                     	;# 
  1788  0000                     	;# 
  1789  0001                     	;# 
  1790  0002                     	;# 
  1791  0003                     	;# 
  1792  0004                     	;# 
  1793  0005                     	;# 
  1794  0006                     	;# 
  1795  0007                     	;# 
  1796  0008                     	;# 
  1797  0009                     	;# 
  1798  000A                     	;# 
  1799  000B                     	;# 
  1800  000C                     	;# 
  1801  000D                     	;# 
  1802  000E                     	;# 
  1803  0011                     	;# 
  1804  0012                     	;# 
  1805  0013                     	;# 
  1806  0014                     	;# 
  1807  0015                     	;# 
  1808  0016                     	;# 
  1809  0016                     	;# 
  1810  0017                     	;# 
  1811  0018                     	;# 
  1812  0019                     	;# 
  1813  001A                     	;# 
  1814  001A                     	;# 
  1815  001B                     	;# 
  1816  001B                     	;# 
  1817  001C                     	;# 
  1818  001D                     	;# 
  1819  001E                     	;# 
  1820  001F                     	;# 
  1821  008C                     	;# 
  1822  008D                     	;# 
  1823  008E                     	;# 
  1824  0091                     	;# 
  1825  0092                     	;# 
  1826  0093                     	;# 
  1827  0094                     	;# 
  1828  0095                     	;# 
  1829  0096                     	;# 
  1830  0097                     	;# 
  1831  0098                     	;# 
  1832  0099                     	;# 
  1833  009A                     	;# 
  1834  009B                     	;# 
  1835  009B                     	;# 
  1836  009C                     	;# 
  1837  009D                     	;# 
  1838  009E                     	;# 
  1839  009F                     	;# 
  1840  010C                     	;# 
  1841  010D                     	;# 
  1842  010E                     	;# 
  1843  010F                     	;# 
  1844  0110                     	;# 
  1845  0111                     	;# 
  1846  0112                     	;# 
  1847  0113                     	;# 
  1848  0114                     	;# 
  1849  0115                     	;# 
  1850  0116                     	;# 
  1851  0117                     	;# 
  1852  0118                     	;# 
  1853  0119                     	;# 
  1854  011A                     	;# 
  1855  011B                     	;# 
  1856  011C                     	;# 
  1857  011D                     	;# 
  1858  011E                     	;# 
  1859  011F                     	;# 
  1860  018C                     	;# 
  1861  018D                     	;# 
  1862  018E                     	;# 
  1863  0191                     	;# 
  1864  0191                     	;# 
  1865  0192                     	;# 
  1866  0193                     	;# 
  1867  0193                     	;# 
  1868  0194                     	;# 
  1869  0195                     	;# 
  1870  0196                     	;# 
  1871  0197                     	;# 
  1872  0199                     	;# 
  1873  0199                     	;# 
  1874  0199                     	;# 
  1875  019A                     	;# 
  1876  019A                     	;# 
  1877  019A                     	;# 
  1878  019B                     	;# 
  1879  019B                     	;# 
  1880  019B                     	;# 
  1881  019B                     	;# 
  1882  019B                     	;# 
  1883  019C                     	;# 
  1884  019C                     	;# 
  1885  019C                     	;# 
  1886  019D                     	;# 
  1887  019D                     	;# 
  1888  019D                     	;# 
  1889  019E                     	;# 
  1890  019E                     	;# 
  1891  019E                     	;# 
  1892  019F                     	;# 
  1893  019F                     	;# 
  1894  019F                     	;# 
  1895  019F                     	;# 
  1896  019F                     	;# 
  1897  020C                     	;# 
  1898  020D                     	;# 
  1899  020E                     	;# 
  1900  0211                     	;# 
  1901  0211                     	;# 
  1902  0212                     	;# 
  1903  0212                     	;# 
  1904  0213                     	;# 
  1905  0213                     	;# 
  1906  0214                     	;# 
  1907  0214                     	;# 
  1908  0215                     	;# 
  1909  0215                     	;# 
  1910  0215                     	;# 
  1911  0215                     	;# 
  1912  0216                     	;# 
  1913  0216                     	;# 
  1914  0217                     	;# 
  1915  0217                     	;# 
  1916  021D                     	;# 
  1917  021E                     	;# 
  1918  021F                     	;# 
  1919  028C                     	;# 
  1920  028D                     	;# 
  1921  028E                     	;# 
  1922  0291                     	;# 
  1923  0291                     	;# 
  1924  0292                     	;# 
  1925  0293                     	;# 
  1926  0294                     	;# 
  1927  0298                     	;# 
  1928  0298                     	;# 
  1929  0299                     	;# 
  1930  029A                     	;# 
  1931  029B                     	;# 
  1932  029E                     	;# 
  1933  030C                     	;# 
  1934  030D                     	;# 
  1935  030E                     	;# 
  1936  031B                     	;# 
  1937  031C                     	;# 
  1938  031D                     	;# 
  1939  031E                     	;# 
  1940  031F                     	;# 
  1941  038C                     	;# 
  1942  038D                     	;# 
  1943  038E                     	;# 
  1944  0391                     	;# 
  1945  0392                     	;# 
  1946  0393                     	;# 
  1947  0394                     	;# 
  1948  0395                     	;# 
  1949  0396                     	;# 
  1950  0397                     	;# 
  1951  0398                     	;# 
  1952  0399                     	;# 
  1953  039B                     	;# 
  1954  039C                     	;# 
  1955  039D                     	;# 
  1956  039E                     	;# 
  1957  039F                     	;# 
  1958  040E                     	;# 
  1959  0413                     	;# 
  1960  0413                     	;# 
  1961  0414                     	;# 
  1962  0414                     	;# 
  1963  0415                     	;# 
  1964  0416                     	;# 
  1965  0417                     	;# 
  1966  0418                     	;# 
  1967  041A                     	;# 
  1968  041A                     	;# 
  1969  041B                     	;# 
  1970  041B                     	;# 
  1971  041C                     	;# 
  1972  041D                     	;# 
  1973  041E                     	;# 
  1974  041F                     	;# 
  1975  0493                     	;# 
  1976  0493                     	;# 
  1977  0494                     	;# 
  1978  0495                     	;# 
  1979  0496                     	;# 
  1980  049A                     	;# 
  1981  049A                     	;# 
  1982  049B                     	;# 
  1983  049C                     	;# 
  1984  049D                     	;# 
  1985  050F                     	;# 
  1986  0510                     	;# 
  1987  0511                     	;# 
  1988  0512                     	;# 
  1989  0513                     	;# 
  1990  0514                     	;# 
  1991  0515                     	;# 
  1992  0516                     	;# 
  1993  0590                     	;# 
  1994  0591                     	;# 
  1995  0592                     	;# 
  1996  0592                     	;# 
  1997  0592                     	;# 
  1998  0593                     	;# 
  1999  0593                     	;# 
  2000  0594                     	;# 
  2001  0595                     	;# 
  2002  0595                     	;# 
  2003  0595                     	;# 
  2004  0596                     	;# 
  2005  0596                     	;# 
  2006  0597                     	;# 
  2007  0598                     	;# 
  2008  0598                     	;# 
  2009  0599                     	;# 
  2010  059A                     	;# 
  2011  059A                     	;# 
  2012  0617                     	;# 
  2013  0618                     	;# 
  2014  0619                     	;# 
  2015  061A                     	;# 
  2016  061B                     	;# 
  2017  061C                     	;# 
  2018  068D                     	;# 
  2019  068E                     	;# 
  2020  068F                     	;# 
  2021  0690                     	;# 
  2022  0691                     	;# 
  2023  0692                     	;# 
  2024  0693                     	;# 
  2025  0694                     	;# 
  2026  0695                     	;# 
  2027  0696                     	;# 
  2028  0697                     	;# 
  2029  0698                     	;# 
  2030  0699                     	;# 
  2031  069A                     	;# 
  2032  069B                     	;# 
  2033  069C                     	;# 
  2034  069D                     	;# 
  2035  069E                     	;# 
  2036  069F                     	;# 
  2037  070D                     	;# 
  2038  070E                     	;# 
  2039  070F                     	;# 
  2040  0710                     	;# 
  2041  0711                     	;# 
  2042  0712                     	;# 
  2043  0713                     	;# 
  2044  0714                     	;# 
  2045  0715                     	;# 
  2046  0716                     	;# 
  2047  0717                     	;# 
  2048  0718                     	;# 
  2049  0719                     	;# 
  2050  071A                     	;# 
  2051  071B                     	;# 
  2052  071C                     	;# 
  2053  071D                     	;# 
  2054  071E                     	;# 
  2055  071F                     	;# 
  2056  0794                     	;# 
  2057  0795                     	;# 
  2058  0796                     	;# 
  2059  0797                     	;# 
  2060  0798                     	;# 
  2061  0799                     	;# 
  2062  079A                     	;# 
  2063  079B                     	;# 
  2064  079C                     	;# 
  2065  079D                     	;# 
  2066  079E                     	;# 
  2067  079F                     	;# 
  2068  0D8E                     	;# 
  2069  0D8F                     	;# 
  2070  0D90                     	;# 
  2071  0D91                     	;# 
  2072  0D91                     	;# 
  2073  0D92                     	;# 
  2074  0D93                     	;# 
  2075  0D93                     	;# 
  2076  0D94                     	;# 
  2077  0D95                     	;# 
  2078  0D95                     	;# 
  2079  0D96                     	;# 
  2080  0D97                     	;# 
  2081  0D97                     	;# 
  2082  0D98                     	;# 
  2083  0D99                     	;# 
  2084  0D99                     	;# 
  2085  0D9A                     	;# 
  2086  0D9B                     	;# 
  2087  0D9C                     	;# 
  2088  0D9C                     	;# 
  2089  0D9D                     	;# 
  2090  0D9D                     	;# 
  2091  0D9E                     	;# 
  2092  0D9F                     	;# 
  2093  0DA0                     	;# 
  2094  0DA1                     	;# 
  2095  0DA1                     	;# 
  2096  0DA2                     	;# 
  2097  0DA3                     	;# 
  2098  0DA3                     	;# 
  2099  0DA4                     	;# 
  2100  0DA5                     	;# 
  2101  0DA5                     	;# 
  2102  0DA6                     	;# 
  2103  0DA7                     	;# 
  2104  0DA7                     	;# 
  2105  0DA8                     	;# 
  2106  0DA9                     	;# 
  2107  0DA9                     	;# 
  2108  0DAA                     	;# 
  2109  0DAB                     	;# 
  2110  0DAC                     	;# 
  2111  0DAC                     	;# 
  2112  0DAD                     	;# 
  2113  0DAD                     	;# 
  2114  0DAE                     	;# 
  2115  0DAF                     	;# 
  2116  0DB0                     	;# 
  2117  0E0F                     	;# 
  2118  0E10                     	;# 
  2119  0E11                     	;# 
  2120  0E12                     	;# 
  2121  0E13                     	;# 
  2122  0E14                     	;# 
  2123  0E15                     	;# 
  2124  0E16                     	;# 
  2125  0E17                     	;# 
  2126  0E19                     	;# 
  2127  0E19                     	;# 
  2128  0E19                     	;# 
  2129  0E1A                     	;# 
  2130  0E1B                     	;# 
  2131  0E1C                     	;# 
  2132  0E1C                     	;# 
  2133  0E1C                     	;# 
  2134  0E1D                     	;# 
  2135  0E1E                     	;# 
  2136  0E1F                     	;# 
  2137  0E1F                     	;# 
  2138  0E1F                     	;# 
  2139  0E20                     	;# 
  2140  0E21                     	;# 
  2141  0E22                     	;# 
  2142  0E24                     	;# 
  2143  0E25                     	;# 
  2144  0E28                     	;# 
  2145  0E29                     	;# 
  2146  0E2A                     	;# 
  2147  0E2B                     	;# 
  2148  0E2C                     	;# 
  2149  0E2D                     	;# 
  2150  0E2E                     	;# 
  2151  0E2F                     	;# 
  2152  0E30                     	;# 
  2153  0E31                     	;# 
  2154  0E32                     	;# 
  2155  0E33                     	;# 
  2156  0E34                     	;# 
  2157  0E35                     	;# 
  2158  0E90                     	;# 
  2159  0E91                     	;# 
  2160  0E92                     	;# 
  2161  0E94                     	;# 
  2162  0E95                     	;# 
  2163  0E9C                     	;# 
  2164  0E9D                     	;# 
  2165  0E9E                     	;# 
  2166  0E9F                     	;# 
  2167  0EA0                     	;# 
  2168  0EA1                     	;# 
  2169  0EA2                     	;# 
  2170  0EA3                     	;# 
  2171  0EA4                     	;# 
  2172  0EA5                     	;# 
  2173  0EA6                     	;# 
  2174  0EA7                     	;# 
  2175  0F0F                     	;# 
  2176  0F10                     	;# 
  2177  0F11                     	;# 
  2178  0F12                     	;# 
  2179  0F13                     	;# 
  2180  0F14                     	;# 
  2181  0F15                     	;# 
  2182  0F16                     	;# 
  2183  0F17                     	;# 
  2184  0F18                     	;# 
  2185  0F19                     	;# 
  2186  0F1A                     	;# 
  2187  0F1B                     	;# 
  2188  0F1C                     	;# 
  2189  0F1D                     	;# 
  2190  0F1E                     	;# 
  2191  0F1F                     	;# 
  2192  0F20                     	;# 
  2193  0F21                     	;# 
  2194  0F22                     	;# 
  2195  0F23                     	;# 
  2196  0F24                     	;# 
  2197  0F25                     	;# 
  2198  0F26                     	;# 
  2199  0F27                     	;# 
  2200  0F28                     	;# 
  2201  0F29                     	;# 
  2202  0F2A                     	;# 
  2203  0F2B                     	;# 
  2204  0F2C                     	;# 
  2205  0F2D                     	;# 
  2206  0FE4                     	;# 
  2207  0FE5                     	;# 
  2208  0FE6                     	;# 
  2209  0FE7                     	;# 
  2210  0FE8                     	;# 
  2211  0FE9                     	;# 
  2212  0FEA                     	;# 
  2213  0FEB                     	;# 
  2214  0FED                     	;# 
  2215  0FEE                     	;# 
  2216  0FEF                     	;_ucp_tab
  2217                           
  2218                           	psect	idataBANK0
  2219  027F                     __pidataBANK0:	
  2220                           
  2221                           ;initializer for _ug_idx_tab_size
  2222  027F  3410               	retlw	16
  2223                           
  2224                           ;initializer for _g_idx_tab_size
  2225  0280  3410               	retlw	16
  2226                           
  2227                           	psect	idataBANK1
  2228  03B6                     __pidataBANK1:	
  2229                           
  2230                           ;initializer for _g_idx_tab
  2231  03B6  3400               	retlw	0
  2232  03B7  3400               	retlw	0
  2233  03B8  3402               	retlw	2
  2234  03B9  3400               	retlw	0
  2235  03BA  3405               	retlw	5
  2236  03BB  3400               	retlw	0
  2237  03BC  340A               	retlw	10
  2238  03BD  3400               	retlw	0
  2239  03BE  3414               	retlw	20
  2240  03BF  3400               	retlw	0
  2241  03C0  3433               	retlw	51
  2242  03C1  3400               	retlw	0
  2243  03C2  3466               	retlw	102
  2244  03C3  3400               	retlw	0
  2245  03C4  3492               	retlw	146
  2246  03C5  3400               	retlw	0
  2247  03C6  34CD               	retlw	205
  2248  03C7  3400               	retlw	0
  2249  03C8  3400               	retlw	0
  2250  03C9  3401               	retlw	1
  2251  03CA  3455               	retlw	85
  2252  03CB  3401               	retlw	1
  2253  03CC  34B9               	retlw	185
  2254  03CD  3401               	retlw	1
  2255  03CE  3403               	retlw	3
  2256  03CF  3402               	retlw	2
  2257  03D0  347B               	retlw	123
  2258  03D1  3402               	retlw	2
  2259  03D2  341B               	retlw	27
  2260  03D3  3403               	retlw	3
  2261  03D4  34E0               	retlw	224
  2262  03D5  3403               	retlw	3
  2263                           
  2264                           ;initializer for _ug_idx_tab
  2265  03D6  3400               	retlw	0
  2266  03D7  3400               	retlw	0
  2267  03D8  341A               	retlw	26
  2268  03D9  3400               	retlw	0
  2269  03DA  3433               	retlw	51
  2270  03DB  3400               	retlw	0
  2271  03DC  344D               	retlw	77
  2272  03DD  3400               	retlw	0
  2273  03DE  3466               	retlw	102
  2274  03DF  3400               	retlw	0
  2275  03E0  3480               	retlw	128
  2276  03E1  3400               	retlw	0
  2277  03E2  349A               	retlw	154
  2278  03E3  3400               	retlw	0
  2279  03E4  34B3               	retlw	179
  2280  03E5  3400               	retlw	0
  2281  03E6  34CD               	retlw	205
  2282  03E7  3400               	retlw	0
  2283  03E8  34E6               	retlw	230
  2284  03E9  3400               	retlw	0
  2285  03EA  3400               	retlw	0
  2286  03EB  3401               	retlw	1
  2287  03EC  341A               	retlw	26
  2288  03ED  3401               	retlw	1
  2289  03EE  3433               	retlw	51
  2290  03EF  3401               	retlw	1
  2291  03F0  344D               	retlw	77
  2292  03F1  3401               	retlw	1
  2293  03F2  3466               	retlw	102
  2294  03F3  3401               	retlw	1
  2295  03F4  347B               	retlw	123
  2296  03F5  3401               	retlw	1
  2297                           
  2298                           	psect	idataBANK2
  2299  030F                     __pidataBANK2:	
  2300                           
  2301                           ;initializer for _ucpm_tab
  2302  030F  3400               	retlw	0
  2303  0310  3400               	retlw	0
  2304  0311  3400               	retlw	0
  2305  0312  3400               	retlw	0
  2306  0313  3400               	retlw	0
  2307  0314  3400               	retlw	0
  2308  0315  3400               	retlw	0
  2309  0316  3400               	retlw	0
  2310  0317  3400               	retlw	0
  2311  0318  3400               	retlw	0
  2312  0319  3400               	retlw	0
  2313  031A  3400               	retlw	0
  2314  031B  3400               	retlw	0
  2315  031C  3400               	retlw	0
  2316  031D  3400               	retlw	0
  2317  031E  3400               	retlw	0
  2318  031F  3400               	retlw	0
  2319  0320  3400               	retlw	0
  2320  0321  3400               	retlw	0
  2321  0322  3400               	retlw	0
  2322  0323  3458               	retlw	88
  2323  0324  3402               	retlw	2
  2324  0325  345F               	retlw	95
  2325  0326  3402               	retlw	2
  2326  0327  3466               	retlw	102
  2327  0328  3402               	retlw	2
  2328  0329  346F               	retlw	111
  2329  032A  3402               	retlw	2
  2330  032B  3477               	retlw	119
  2331  032C  3402               	retlw	2
  2332  032D  347D               	retlw	125
  2333  032E  3402               	retlw	2
  2334                           
  2335                           	psect	idataBIGRAM
  2336  05CC                     __pidataBIGRAM:	
  2337                           
  2338                           ;initializer for _ucp_tab
  2339  05CC  3400               	retlw	0
  2340  05CD  3401               	retlw	1
  2341  05CE  3400               	retlw	0
  2342  05CF  3401               	retlw	1
  2343  05D0  3400               	retlw	0
  2344  05D1  3401               	retlw	1
  2345  05D2  3400               	retlw	0
  2346  05D3  3401               	retlw	1
  2347  05D4  3400               	retlw	0
  2348  05D5  3401               	retlw	1
  2349  05D6  3400               	retlw	0
  2350  05D7  3401               	retlw	1
  2351  05D8  3400               	retlw	0
  2352  05D9  3401               	retlw	1
  2353  05DA  3400               	retlw	0
  2354  05DB  3401               	retlw	1
  2355  05DC  3400               	retlw	0
  2356  05DD  3401               	retlw	1
  2357  05DE  3400               	retlw	0
  2358  05DF  3401               	retlw	1
  2359  05E0  3400               	retlw	0
  2360  05E1  3401               	retlw	1
  2361  05E2  3400               	retlw	0
  2362  05E3  3401               	retlw	1
  2363  05E4  3400               	retlw	0
  2364  05E5  3401               	retlw	1
  2365  05E6  3400               	retlw	0
  2366  05E7  3401               	retlw	1
  2367  05E8  3400               	retlw	0
  2368  05E9  3401               	retlw	1
  2369  05EA  3400               	retlw	0
  2370  05EB  3401               	retlw	1
  2371  05EC  3400               	retlw	0
  2372  05ED  3401               	retlw	1
  2373  05EE  3418               	retlw	24
  2374  05EF  3401               	retlw	1
  2375  05F0  341B               	retlw	27
  2376  05F1  3401               	retlw	1
  2377  05F2  341D               	retlw	29
  2378  05F3  3401               	retlw	1
  2379  05F4  341F               	retlw	31
  2380  05F5  3401               	retlw	1
  2381  05F6  3423               	retlw	35
  2382  05F7  3401               	retlw	1
  2383  05F8  3425               	retlw	37
  2384  05F9  3401               	retlw	1
  2385  05FA  3426               	retlw	38
  2386  05FB  3401               	retlw	1
  2387  05FC  3427               	retlw	39
  2388  05FD  3401               	retlw	1
  2389  05FE  3428               	retlw	40
  2390  05FF  3401               	retlw	1
  2391  0600  3429               	retlw	41
  2392  0601  3401               	retlw	1
  2393  0602  342A               	retlw	42
  2394  0603  3401               	retlw	1
  2395  0604  342A               	retlw	42
  2396  0605  3401               	retlw	1
  2397  0606  342B               	retlw	43
  2398  0607  3401               	retlw	1
  2399  0608  342C               	retlw	44
  2400  0609  3401               	retlw	1
  2401  060A  342D               	retlw	45
  2402  060B  3401               	retlw	1
  2403  060C  3400               	retlw	0
  2404  060D  3401               	retlw	1
  2405  060E  3430               	retlw	48
  2406  060F  3401               	retlw	1
  2407  0610  343B               	retlw	59
  2408  0611  3401               	retlw	1
  2409  0612  3444               	retlw	68
  2410  0613  3401               	retlw	1
  2411  0614  344C               	retlw	76
  2412  0615  3401               	retlw	1
  2413  0616  3454               	retlw	84
  2414  0617  3401               	retlw	1
  2415  0618  3456               	retlw	86
  2416  0619  3401               	retlw	1
  2417  061A  3457               	retlw	87
  2418  061B  3401               	retlw	1
  2419  061C  3458               	retlw	88
  2420  061D  3401               	retlw	1
  2421  061E  3459               	retlw	89
  2422  061F  3401               	retlw	1
  2423  0620  345A               	retlw	90
  2424  0621  3401               	retlw	1
  2425  0622  345B               	retlw	91
  2426  0623  3401               	retlw	1
  2427  0624  345C               	retlw	92
  2428  0625  3401               	retlw	1
  2429  0626  345C               	retlw	92
  2430  0627  3401               	retlw	1
  2431  0628  345D               	retlw	93
  2432  0629  3401               	retlw	1
  2433  062A  345E               	retlw	94
  2434  062B  3401               	retlw	1
  2435  062C  3400               	retlw	0
  2436  062D  3401               	retlw	1
  2437  062E  3449               	retlw	73
  2438  062F  3401               	retlw	1
  2439  0630  3458               	retlw	88
  2440  0631  3401               	retlw	1
  2441  0632  3466               	retlw	102
  2442  0633  3401               	retlw	1
  2443  0634  3473               	retlw	115
  2444  0635  3401               	retlw	1
  2445  0636  347C               	retlw	124
  2446  0637  3401               	retlw	1
  2447  0638  347F               	retlw	127
  2448  0639  3401               	retlw	1
  2449  063A  3480               	retlw	128
  2450  063B  3401               	retlw	1
  2451  063C  3482               	retlw	130
  2452  063D  3401               	retlw	1
  2453  063E  3482               	retlw	130
  2454  063F  3401               	retlw	1
  2455  0640  3485               	retlw	133
  2456  0641  3401               	retlw	1
  2457  0642  3486               	retlw	134
  2458  0643  3401               	retlw	1
  2459  0644  3486               	retlw	134
  2460  0645  3401               	retlw	1
  2461  0646  3487               	retlw	135
  2462  0647  3401               	retlw	1
  2463  0648  3488               	retlw	136
  2464  0649  3401               	retlw	1
  2465  064A  348A               	retlw	138
  2466  064B  3401               	retlw	1
  2467  064C  3400               	retlw	0
  2468  064D  3401               	retlw	1
  2469  064E  3461               	retlw	97
  2470  064F  3401               	retlw	1
  2471  0650  3475               	retlw	117
  2472  0651  3401               	retlw	1
  2473  0652  3489               	retlw	137
  2474  0653  3401               	retlw	1
  2475  0654  3494               	retlw	148
  2476  0655  3401               	retlw	1
  2477  0656  34A1               	retlw	161
  2478  0657  3401               	retlw	1
  2479  0658  34A3               	retlw	163
  2480  0659  3401               	retlw	1
  2481  065A  34A4               	retlw	164
  2482  065B  3401               	retlw	1
  2483  065C  34A6               	retlw	166
  2484  065D  3401               	retlw	1
  2485  065E  34A7               	retlw	167
  2486  065F  3401               	retlw	1
  2487  0660  34A9               	retlw	169
  2488  0661  3401               	retlw	1
  2489  0662  34AA               	retlw	170
  2490  0663  3401               	retlw	1
  2491  0664  34AA               	retlw	170
  2492  0665  3401               	retlw	1
  2493  0666  34AB               	retlw	171
  2494  0667  3401               	retlw	1
  2495  0668  34AD               	retlw	173
  2496  0669  3401               	retlw	1
  2497  066A  34B0               	retlw	176
  2498  066B  3401               	retlw	1
  2499  066C  3400               	retlw	0
  2500  066D  3401               	retlw	1
  2501  066E  3478               	retlw	120
  2502  066F  3401               	retlw	1
  2503  0670  3491               	retlw	145
  2504  0671  3401               	retlw	1
  2505  0672  34A6               	retlw	166
  2506  0673  3401               	retlw	1
  2507  0674  34B7               	retlw	183
  2508  0675  3401               	retlw	1
  2509  0676  34C0               	retlw	192
  2510  0677  3401               	retlw	1
  2511  0678  34C2               	retlw	194
  2512  0679  3401               	retlw	1
  2513  067A  34C4               	retlw	196
  2514  067B  3401               	retlw	1
  2515  067C  34C5               	retlw	197
  2516  067D  3401               	retlw	1
  2517  067E  34C7               	retlw	199
  2518  067F  3401               	retlw	1
  2519  0680  34C8               	retlw	200
  2520  0681  3401               	retlw	1
  2521  0682  34C9               	retlw	201
  2522  0683  3401               	retlw	1
  2523  0684  34CA               	retlw	202
  2524  0685  3401               	retlw	1
  2525  0686  34CC               	retlw	204
  2526  0687  3401               	retlw	1
  2527  0688  34CF               	retlw	207
  2528  0689  3401               	retlw	1
  2529  068A  34D3               	retlw	211
  2530  068B  3401               	retlw	1
  2531  068C  3400               	retlw	0
  2532  068D  3401               	retlw	1
  2533  068E  3492               	retlw	146
  2534  068F  3401               	retlw	1
  2535  0690  34B2               	retlw	178
  2536  0691  3401               	retlw	1
  2537  0692  34C4               	retlw	196
  2538  0693  3401               	retlw	1
  2539  0694  34D3               	retlw	211
  2540  0695  3401               	retlw	1
  2541  0696  34DB               	retlw	219
  2542  0697  3401               	retlw	1
  2543  0698  34DD               	retlw	221
  2544  0699  3401               	retlw	1
  2545  069A  34DE               	retlw	222
  2546  069B  3401               	retlw	1
  2547  069C  34E0               	retlw	224
  2548  069D  3401               	retlw	1
  2549  069E  34E2               	retlw	226
  2550  069F  3401               	retlw	1
  2551  06A0  34E4               	retlw	228
  2552  06A1  3401               	retlw	1
  2553  06A2  34E5               	retlw	229
  2554  06A3  3401               	retlw	1
  2555  06A4  34E7               	retlw	231
  2556  06A5  3401               	retlw	1
  2557  06A6  34EA               	retlw	234
  2558  06A7  3401               	retlw	1
  2559  06A8  34ED               	retlw	237
  2560  06A9  3401               	retlw	1
  2561  06AA  34F2               	retlw	242
  2562  06AB  3401               	retlw	1
  2563  06AC  3400               	retlw	0
  2564  06AD  3401               	retlw	1
  2565  06AE  34AE               	retlw	174
  2566  06AF  3401               	retlw	1
  2567  06B0  34CD               	retlw	205
  2568  06B1  3401               	retlw	1
  2569  06B2  34DE               	retlw	222
  2570  06B3  3401               	retlw	1
  2571  06B4  34EC               	retlw	236
  2572  06B5  3401               	retlw	1
  2573  06B6  34F3               	retlw	243
  2574  06B7  3401               	retlw	1
  2575  06B8  34F6               	retlw	246
  2576  06B9  3401               	retlw	1
  2577  06BA  34F8               	retlw	248
  2578  06BB  3401               	retlw	1
  2579  06BC  34F9               	retlw	249
  2580  06BD  3401               	retlw	1
  2581  06BE  34FA               	retlw	250
  2582  06BF  3401               	retlw	1
  2583  06C0  34FC               	retlw	252
  2584  06C1  3401               	retlw	1
  2585  06C2  34FE               	retlw	254
  2586  06C3  3401               	retlw	1
  2587  06C4  3400               	retlw	0
  2588  06C5  3402               	retlw	2
  2589  06C6  3404               	retlw	4
  2590  06C7  3402               	retlw	2
  2591  06C8  3409               	retlw	9
  2592  06C9  3402               	retlw	2
  2593  06CA  340F               	retlw	15
  2594  06CB  3402               	retlw	2
  2595  06CC  3400               	retlw	0
  2596  06CD  3401               	retlw	1
  2597  06CE  34C7               	retlw	199
  2598  06CF  3401               	retlw	1
  2599  06D0  34E5               	retlw	229
  2600  06D1  3401               	retlw	1
  2601  06D2  34F7               	retlw	247
  2602  06D3  3401               	retlw	1
  2603  06D4  3401               	retlw	1
  2604  06D5  3402               	retlw	2
  2605  06D6  3407               	retlw	7
  2606  06D7  3402               	retlw	2
  2607  06D8  340B               	retlw	11
  2608  06D9  3402               	retlw	2
  2609  06DA  340D               	retlw	13
  2610  06DB  3402               	retlw	2
  2611  06DC  340E               	retlw	14
  2612  06DD  3402               	retlw	2
  2613  06DE  340F               	retlw	15
  2614  06DF  3402               	retlw	2
  2615  06E0  3412               	retlw	18
  2616  06E1  3402               	retlw	2
  2617  06E2  3414               	retlw	20
  2618  06E3  3402               	retlw	2
  2619  06E4  3417               	retlw	23
  2620  06E5  3402               	retlw	2
  2621  06E6  341B               	retlw	27
  2622  06E7  3402               	retlw	2
  2623  06E8  3421               	retlw	33
  2624  06E9  3402               	retlw	2
  2625  06EA  3429               	retlw	41
  2626  06EB  3402               	retlw	2
  2627  06EC  3400               	retlw	0
  2628  06ED  3401               	retlw	1
  2629  06EE  34DD               	retlw	221
  2630  06EF  3401               	retlw	1
  2631  06F0  34FA               	retlw	250
  2632  06F1  3401               	retlw	1
  2633  06F2  340A               	retlw	10
  2634  06F3  3402               	retlw	2
  2635  06F4  3414               	retlw	20
  2636  06F5  3402               	retlw	2
  2637  06F6  3419               	retlw	25
  2638  06F7  3402               	retlw	2
  2639  06F8  341D               	retlw	29
  2640  06F9  3402               	retlw	2
  2641  06FA  341F               	retlw	31
  2642  06FB  3402               	retlw	2
  2643  06FC  3420               	retlw	32
  2644  06FD  3402               	retlw	2
  2645  06FE  3422               	retlw	34
  2646  06FF  3402               	retlw	2
  2647  0700  3424               	retlw	36
  2648  0701  3402               	retlw	2
  2649  0702  3427               	retlw	39
  2650  0703  3402               	retlw	2
  2651  0704  3429               	retlw	41
  2652  0705  3402               	retlw	2
  2653  0706  342F               	retlw	47
  2654  0707  3402               	retlw	2
  2655  0708  3436               	retlw	54
  2656  0709  3402               	retlw	2
  2657  070A  3440               	retlw	64
  2658  070B  3402               	retlw	2
  2659  070C  3400               	retlw	0
  2660  070D  3401               	retlw	1
  2661  070E  34F2               	retlw	242
  2662  070F  3401               	retlw	1
  2663  0710  340E               	retlw	14
  2664  0711  3402               	retlw	2
  2665  0712  341B               	retlw	27
  2666  0713  3402               	retlw	2
  2667  0714  3425               	retlw	37
  2668  0715  3402               	retlw	2
  2669  0716  342B               	retlw	43
  2670  0717  3402               	retlw	2
  2671  0718  342E               	retlw	46
  2672  0719  3402               	retlw	2
  2673  071A  3430               	retlw	48
  2674  071B  3402               	retlw	2
  2675  071C  3431               	retlw	49
  2676  071D  3402               	retlw	2
  2677  071E  3433               	retlw	51
  2678  071F  3402               	retlw	2
  2679  0720  3436               	retlw	54
  2680  0721  3402               	retlw	2
  2681  0722  343A               	retlw	58
  2682  0723  3402               	retlw	2
  2683  0724  343D               	retlw	61
  2684  0725  3402               	retlw	2
  2685  0726  3444               	retlw	68
  2686  0727  3402               	retlw	2
  2687  0728  344B               	retlw	75
  2688  0729  3402               	retlw	2
  2689  072A  3458               	retlw	88
  2690  072B  3402               	retlw	2
  2691  072C  3400               	retlw	0
  2692  072D  3401               	retlw	1
  2693  072E  3405               	retlw	5
  2694  072F  3402               	retlw	2
  2695  0730  341E               	retlw	30
  2696  0731  3402               	retlw	2
  2697  0732  342B               	retlw	43
  2698  0733  3402               	retlw	2
  2699  0734  3433               	retlw	51
  2700  0735  3402               	retlw	2
  2701  0736  3438               	retlw	56
  2702  0737  3402               	retlw	2
  2703  0738  343C               	retlw	60
  2704  0739  3402               	retlw	2
  2705  073A  343E               	retlw	62
  2706  073B  3402               	retlw	2
  2707  073C  3440               	retlw	64
  2708  073D  3402               	retlw	2
  2709  073E  3442               	retlw	66
  2710  073F  3402               	retlw	2
  2711  0740  3445               	retlw	69
  2712  0741  3402               	retlw	2
  2713  0742  344A               	retlw	74
  2714  0743  3402               	retlw	2
  2715  0744  344D               	retlw	77
  2716  0745  3402               	retlw	2
  2717  0746  3453               	retlw	83
  2718  0747  3402               	retlw	2
  2719  0748  345F               	retlw	95
  2720  0749  3402               	retlw	2
  2721  074A  3470               	retlw	112
  2722  074B  3402               	retlw	2
  2723  074C  3400               	retlw	0
  2724  074D  3401               	retlw	1
  2725  074E  3416               	retlw	22
  2726  074F  3402               	retlw	2
  2727  0750  342D               	retlw	45
  2728  0751  3402               	retlw	2
  2729  0752  3439               	retlw	57
  2730  0753  3402               	retlw	2
  2731  0754  3441               	retlw	65
  2732  0755  3402               	retlw	2
  2733  0756  3446               	retlw	70
  2734  0757  3402               	retlw	2
  2735  0758  344A               	retlw	74
  2736  0759  3402               	retlw	2
  2737  075A  344B               	retlw	75
  2738  075B  3402               	retlw	2
  2739  075C  344D               	retlw	77
  2740  075D  3402               	retlw	2
  2741  075E  3450               	retlw	80
  2742  075F  3402               	retlw	2
  2743  0760  3453               	retlw	83
  2744  0761  3402               	retlw	2
  2745  0762  3459               	retlw	89
  2746  0763  3402               	retlw	2
  2747  0764  345D               	retlw	93
  2748  0765  3402               	retlw	2
  2749  0766  3466               	retlw	102
  2750  0767  3402               	retlw	2
  2751  0768  3472               	retlw	114
  2752  0769  3402               	retlw	2
  2753  076A  347C               	retlw	124
  2754  076B  3402               	retlw	2
  2755  076C  3400               	retlw	0
  2756  076D  3401               	retlw	1
  2757  076E  3424               	retlw	36
  2758  076F  3402               	retlw	2
  2759  0770  343A               	retlw	58
  2760  0771  3402               	retlw	2
  2761  0772  3447               	retlw	71
  2762  0773  3402               	retlw	2
  2763  0774  344D               	retlw	77
  2764  0775  3402               	retlw	2
  2765  0776  3451               	retlw	81
  2766  0777  3402               	retlw	2
  2767  0778  3454               	retlw	84
  2768  0779  3402               	retlw	2
  2769  077A  3456               	retlw	86
  2770  077B  3402               	retlw	2
  2771  077C  3458               	retlw	88
  2772  077D  3402               	retlw	2
  2773  077E  345B               	retlw	91
  2774  077F  3402               	retlw	2
  2775  0780  3460               	retlw	96
  2776  0781  3402               	retlw	2
  2777  0782  3465               	retlw	101
  2778  0783  3402               	retlw	2
  2779  0784  346F               	retlw	111
  2780  0785  3402               	retlw	2
  2781  0786  3479               	retlw	121
  2782  0787  3402               	retlw	2
  2783  0788  3480               	retlw	128
  2784  0789  3402               	retlw	2
  2785  078A  3488               	retlw	136
  2786  078B  3402               	retlw	2
  2787  078C  3400               	retlw	0
  2788  078D  3401               	retlw	1
  2789  078E  3433               	retlw	51
  2790  078F  3402               	retlw	2
  2791  0790  3448               	retlw	72
  2792  0791  3402               	retlw	2
  2793  0792  3451               	retlw	81
  2794  0793  3402               	retlw	2
  2795  0794  3457               	retlw	87
  2796  0795  3402               	retlw	2
  2797  0796  345B               	retlw	91
  2798  0797  3402               	retlw	2
  2799  0798  345E               	retlw	94
  2800  0799  3402               	retlw	2
  2801  079A  345F               	retlw	95
  2802  079B  3402               	retlw	2
  2803  079C  3462               	retlw	98
  2804  079D  3402               	retlw	2
  2805  079E  3465               	retlw	101
  2806  079F  3402               	retlw	2
  2807  07A0  346A               	retlw	106
  2808  07A1  3402               	retlw	2
  2809  07A2  3470               	retlw	112
  2810  07A3  3402               	retlw	2
  2811  07A4  3480               	retlw	128
  2812  07A5  3402               	retlw	2
  2813  07A6  348E               	retlw	142
  2814  07A7  3402               	retlw	2
  2815  07A8  3490               	retlw	144
  2816  07A9  3402               	retlw	2
  2817  07AA  3494               	retlw	148
  2818  07AB  3402               	retlw	2
  2819  07AC  3400               	retlw	0
  2820  07AD  3401               	retlw	1
  2821  07AE  343C               	retlw	60
  2822  07AF  3402               	retlw	2
  2823  07B0  344F               	retlw	79
  2824  07B1  3402               	retlw	2
  2825  07B2  3458               	retlw	88
  2826  07B3  3402               	retlw	2
  2827  07B4  345E               	retlw	94
  2828  07B5  3402               	retlw	2
  2829  07B6  3464               	retlw	100
  2830  07B7  3402               	retlw	2
  2831  07B8  3467               	retlw	103
  2832  07B9  3402               	retlw	2
  2833  07BA  3468               	retlw	104
  2834  07BB  3402               	retlw	2
  2835  07BC  346C               	retlw	108
  2836  07BD  3402               	retlw	2
  2837  07BE  346F               	retlw	111
  2838  07BF  3402               	retlw	2
  2839  07C0  3474               	retlw	116
  2840  07C1  3402               	retlw	2
  2841  07C2  347D               	retlw	125
  2842  07C3  3402               	retlw	2
  2843  07C4  349E               	retlw	158
  2844  07C5  3402               	retlw	2
  2845  07C6  349E               	retlw	158
  2846  07C7  3402               	retlw	2
  2847  07C8  349E               	retlw	158
  2848  07C9  3402               	retlw	2
  2849  07CA  349E               	retlw	158
  2850  07CB  3402               	retlw	2
  2851  0097                     _WDTCON	set	151
  2852  0098                     _OSCTUNE	set	152
  2853  009A                     _OSCSTAT	set	154
  2854  0099                     _OSCCON	set	153
  2855  0095                     _OPTION_REGbits	set	149
  2856  008E                     _TRISC	set	142
  2857  008D                     _TRISB	set	141
  2858  008C                     _TRISA	set	140
  2859  009D                     _ADCON0bits	set	157
  2860  009C                     _ADRESH	set	156
  2861  009B                     _ADRESL	set	155
  2862  009F                     _ADCON2	set	159
  2863  009E                     _ADCON1	set	158
  2864  009D                     _ADCON0	set	157
  2865  010E                     _LATC	set	270
  2866  010D                     _LATB	set	269
  2867  010C                     _LATA	set	268
  2868  018C                     _ANSELA	set	396
  2869  018D                     _ANSELB	set	397
  2870  018E                     _ANSELC	set	398
  2871  021D                     _BORCON	set	541
  2872  020E                     _WPUC	set	526
  2873  020C                     _WPUA	set	524
  2874  020D                     _WPUB	set	525
  2875  028E                     _ODCONC	set	654
  2876  028D                     _ODCONB	set	653
  2877  028C                     _ODCONA	set	652
  2878  0591                     _DAC1CON0bits	set	1425
  2879  0590                     _DACLDbits	set	1424
  2880  0592                     _DAC1REFL	set	1426
  2881  0593                     _DAC1REFH	set	1427
  2882  0591                     _DAC1CON0	set	1425
  2883                           
  2884                           ; #config settings
  2885  0000                     
  2886                           	psect	cinit
  2887  07CC                     start_initialization:	
  2888  07CC                     __initialization:		;BIGRAM
  2889                           
  2890                           ; Initialize objects allocated to BIGRAM
  2891  07CC  30CC               	movlw	low __pidataBIGRAM
  2892  07CD  0084               	movwf	4
  2893  07CE  3085               	movlw	(high __pidataBIGRAM)| (0+128)
  2894  07CF  0085               	movwf	5
  2895  07D0  30F0               	movlw	low (0+8688)
  2896  07D1  0086               	movwf	6
  2897  07D2  3021               	movlw	high (0+8688)
  2898  07D3  0087               	movwf	7
  2899  07D4  3002               	movlw	2
  2900  07D5  00FF               	movwf	btemp+1
  2901  07D6  3000               	movlw	0
  2902  07D7  3182  22A6  3187   	fcall	init_ram
  2903                           
  2904                           ; Initialize objects allocated to BANK0
  2905  07DA  3182  227F  3187   	fcall	__pidataBANK0	;fetch initializer
  2906  07DD  00CA               	movwf	__pdataBANK0& (0+127)
  2907  07DE  3182  2280  3187   	fcall	__pidataBANK0+1	;fetch initializer
  2908  07E1  00CB               	movwf	(__pdataBANK0+1)& (0+127)
  2909                           
  2910                           ; Initialize objects allocated to BANK1
  2911  07E2  30B6               	movlw	low __pidataBANK1
  2912  07E3  0084               	movwf	4
  2913  07E4  3083               	movlw	(high __pidataBANK1)| (0+128)
  2914  07E5  0085               	movwf	5
  2915  07E6  30A0               	movlw	low __pdataBANK1
  2916  07E7  0086               	movwf	6
  2917  07E8  3000               	movlw	high __pdataBANK1
  2918  07E9  0087               	movwf	7
  2919  07EA  3000               	movlw	0
  2920  07EB  00FF               	movwf	btemp+1
  2921  07EC  3040               	movlw	64
  2922  07ED  3182  22A6  3187   	fcall	init_ram
  2923                           
  2924                           ; Initialize objects allocated to BANK2
  2925  07F0  300F               	movlw	low __pidataBANK2
  2926  07F1  0084               	movwf	4
  2927  07F2  3083               	movlw	(high __pidataBANK2)| (0+128)
  2928  07F3  0085               	movwf	5
  2929  07F4  3020               	movlw	low __pdataBANK2
  2930  07F5  0086               	movwf	6
  2931  07F6  3001               	movlw	high __pdataBANK2
  2932  07F7  0087               	movwf	7
  2933  07F8  3000               	movlw	0
  2934  07F9  00FF               	movwf	btemp+1
  2935  07FA  3020               	movlw	32
  2936  07FB  3182  22A6         	fcall	init_ram
  2937  07FD                     end_of_initialization:	
  2938                           ;End of C runtime variable initialization code
  2939                           
  2940  07FD                     __end_of__initialization:	
  2941  07FD  0020               	movlb	0
  2942  07FE  3183  2B55         	ljmp	_main	;jump to C main() function
  2943                           
  2944                           	psect	dataBANK0
  2945  004A                     __pdataBANK0:	
  2946  004A                     _ug_idx_tab_size:	
  2947  004A                     	ds	1
  2948  004B                     _g_idx_tab_size:	
  2949  004B                     	ds	1
  2950                           
  2951                           	psect	dataBANK1
  2952  00A0                     __pdataBANK1:	
  2953  00A0                     _g_idx_tab:	
  2954  00A0                     	ds	32
  2955  00C0                     _ug_idx_tab:	
  2956  00C0                     	ds	32
  2957                           
  2958                           	psect	dataBANK2
  2959  0120                     __pdataBANK2:	
  2960  0120                     _ucpm_tab:	
  2961  0120                     	ds	32
  2962                           
  2963                           	psect	inittext
  2964  02A6                     init_ram:	
  2965  02A6  00FE               	movwf	126
  2966  02A7                     initloop:	
  2967  02A7  0012               	moviw fsr0++
  2968  02A8  001E               	movwi fsr1++
  2969  02A9  3001               	movlw	1
  2970  02AA  02FE               	subwf	126,f
  2971  02AB  3000               	movlw	0
  2972  02AC  3BFF               	subwfb	127,f
  2973  02AD  087F               	movf	127,w
  2974  02AE  047E               	iorwf	126,w
  2975  02AF  1903               	btfsc	3,2
  2976  02B0  3400               	retlw	0
  2977  02B1  2AA7               	goto	initloop
  2978                           
  2979                           	psect	cstackCOMMON
  2980  0070                     __pcstackCOMMON:	
  2981  0070                     ?_OSCILLATOR_Initialize:	
  2982  0070                     ??_OSCILLATOR_Initialize:	
  2983                           ; 1 bytes @ 0x0
  2984                           
  2985  0070                     ?_WDT_Initialize:	
  2986                           ; 1 bytes @ 0x0
  2987                           
  2988  0070                     ??_WDT_Initialize:	
  2989                           ; 1 bytes @ 0x0
  2990                           
  2991  0070                     ?_ADC_Initialize:	
  2992                           ; 1 bytes @ 0x0
  2993                           
  2994  0070                     ??_ADC_Initialize:	
  2995                           ; 1 bytes @ 0x0
  2996                           
  2997  0070                     ?_DAC1_Initialize:	
  2998                           ; 1 bytes @ 0x0
  2999                           
  3000  0070                     ??_DAC1_Initialize:	
  3001                           ; 1 bytes @ 0x0
  3002                           
  3003  0070                     ?_DAC1_Load10bitInputData:	
  3004                           ; 1 bytes @ 0x0
  3005                           
  3006  0070                     ?_PIN_MANAGER_Initialize:	
  3007                           ; 1 bytes @ 0x0
  3008                           
  3009  0070                     ??_PIN_MANAGER_Initialize:	
  3010                           ; 1 bytes @ 0x0
  3011                           
  3012  0070                     ?_SYSTEM_Initialize:	
  3013                           ; 1 bytes @ 0x0
  3014                           
  3015  0070                     ??_SYSTEM_Initialize:	
  3016                           ; 1 bytes @ 0x0
  3017                           
  3018  0070                     ?_main:	
  3019                           ; 1 bytes @ 0x0
  3020                           
  3021  0070                     ?_get_tab_idx:	
  3022                           ; 1 bytes @ 0x0
  3023                           
  3024  0070                     ?_ADC_GetConversion:	
  3025                           ; 1 bytes @ 0x0
  3026                           
  3027  0070                     ?___wmul:	
  3028                           ; 2 bytes @ 0x0
  3029                           
  3030  0070                     DAC1_Load10bitInputData@input10BitData:	
  3031                           ; 2 bytes @ 0x0
  3032                           
  3033  0070                     get_tab_idx@tab_size:	
  3034                           ; 2 bytes @ 0x0
  3035                           
  3036  0070                     ___wmul@multiplier:	
  3037                           ; 2 bytes @ 0x0
  3038                           
  3039                           
  3040                           ; 2 bytes @ 0x0
  3041  0070                     	ds	2
  3042  0072                     ??_ADC_GetConversion:	
  3043  0072                     ??_DAC1_Load10bitInputData:	
  3044                           ; 1 bytes @ 0x2
  3045                           
  3046  0072                     get_tab_idx@val:	
  3047                           ; 1 bytes @ 0x2
  3048                           
  3049  0072                     ___wmul@multiplicand:	
  3050                           ; 2 bytes @ 0x2
  3051                           
  3052                           
  3053                           ; 2 bytes @ 0x2
  3054  0072                     	ds	1
  3055  0073                     ADC_GetConversion@channel:	
  3056                           
  3057                           ; 1 bytes @ 0x3
  3058  0073                     	ds	1
  3059  0074                     ??_get_tab_idx:	
  3060  0074                     ??___wmul:	
  3061                           ; 1 bytes @ 0x4
  3062                           
  3063  0074                     ___wmul@product:	
  3064                           ; 1 bytes @ 0x4
  3065                           
  3066                           
  3067                           ; 2 bytes @ 0x4
  3068  0074                     	ds	2
  3069  0076                     ?___lwdiv:	
  3070  0076                     ___lwdiv@divisor:	
  3071                           ; 2 bytes @ 0x6
  3072                           
  3073                           
  3074                           ; 2 bytes @ 0x6
  3075  0076                     	ds	1
  3076  0077                     get_tab_idx@tab:	
  3077                           
  3078                           ; 1 bytes @ 0x7
  3079  0077                     	ds	1
  3080  0078                     get_tab_idx@idx:	
  3081  0078                     ___lwdiv@dividend:	
  3082                           ; 1 bytes @ 0x8
  3083                           
  3084                           
  3085                           ; 2 bytes @ 0x8
  3086  0078                     	ds	2
  3087  007A                     ??___lwdiv:	
  3088                           
  3089                           ; 1 bytes @ 0xA
  3090  007A                     	ds	1
  3091  007B                     ___lwdiv@quotient:	
  3092                           
  3093                           ; 2 bytes @ 0xB
  3094  007B                     	ds	2
  3095  007D                     ___lwdiv@counter:	
  3096                           
  3097                           ; 1 bytes @ 0xD
  3098  007D                     	ds	1
  3099  007E                     ??_main:	
  3100                           
  3101                           	psect	cstackBANK0
  3102  0020                     __pcstackBANK0:	
  3103                           ; 1 bytes @ 0xE
  3104                           
  3105  0020                     ?_ugrid_calc_ucp:	
  3106  0020                     ugrid_calc_ucp@ug:	
  3107                           ; 2 bytes @ 0x0
  3108                           
  3109                           
  3110                           ; 2 bytes @ 0x0
  3111  0020                     	ds	2
  3112  0022                     ugrid_calc_ucp@g:	
  3113                           
  3114                           ; 2 bytes @ 0x2
  3115  0022                     	ds	2
  3116  0024                     ??_ugrid_calc_ucp:	
  3117                           
  3118                           ; 1 bytes @ 0x4
  3119  0024                     	ds	20
  3120  0038                     ugrid_calc_ucp@ucp2:	
  3121                           
  3122                           ; 2 bytes @ 0x18
  3123  0038                     	ds	2
  3124  003A                     ugrid_calc_ucp@kn:	
  3125                           
  3126                           ; 2 bytes @ 0x1A
  3127  003A                     	ds	2
  3128  003C                     ugrid_calc_ucp@ucpm:	
  3129                           
  3130                           ; 2 bytes @ 0x1C
  3131  003C                     	ds	2
  3132  003E                     ugrid_calc_ucp@ucp1:	
  3133                           
  3134                           ; 2 bytes @ 0x1E
  3135  003E                     	ds	2
  3136  0040                     ugrid_calc_ucp@ucp:	
  3137                           
  3138                           ; 2 bytes @ 0x20
  3139  0040                     	ds	2
  3140  0042                     ugrid_calc_ucp@g_idx:	
  3141                           
  3142                           ; 1 bytes @ 0x22
  3143  0042                     	ds	1
  3144  0043                     ugrid_calc_ucp@ug_idx:	
  3145                           
  3146                           ; 1 bytes @ 0x23
  3147  0043                     	ds	1
  3148  0044                     main@val_ug:	
  3149                           
  3150                           ; 2 bytes @ 0x24
  3151  0044                     	ds	2
  3152  0046                     main@val_g:	
  3153                           
  3154                           ; 2 bytes @ 0x26
  3155  0046                     	ds	2
  3156  0048                     main@result:	
  3157                           
  3158                           ; 2 bytes @ 0x28
  3159  0048                     	ds	2
  3160                           
  3161                           	psect	maintext
  3162  0355                     __pmaintext:	
  3163 ;;
  3164 ;;Main: autosize = 0, tempsize = 0, incstack = 0, save=0
  3165 ;;
  3166 ;; *************** function _main *****************
  3167 ;; Defined at:
  3168 ;;		line 56 in file "main.c"
  3169 ;; Parameters:    Size  Location     Type
  3170 ;;		None
  3171 ;; Auto vars:     Size  Location     Type
  3172 ;;  result          2   40[BANK0 ] unsigned int 
  3173 ;;  val_g           2   38[BANK0 ] unsigned int 
  3174 ;;  val_ug          2   36[BANK0 ] unsigned int 
  3175 ;; Return value:  Size  Location     Type
  3176 ;;                  1    wreg      void 
  3177 ;; Registers used:
  3178 ;;		wreg, fsr0l, fsr0h, fsr1l, fsr1h, status,2, status,0, pclath, cstack
  3179 ;; Tracked objects:
  3180 ;;		On entry : B1F/0
  3181 ;;		On exit  : 0/0
  3182 ;;		Unchanged: 0/0
  3183 ;; Data sizes:     COMMON   BANK0   BANK1   BANK2   BANK3   BANK4   BANK5   BANK6   BANK7   BANK8   BANK9  BANK10  BANK1
      +1  BANK12
  3184 ;;      Params:         0       0       0       0       0       0       0       0       0       0       0       0       
      +0       0
  3185 ;;      Locals:         0       6       0       0       0       0       0       0       0       0       0       0       
      +0       0
  3186 ;;      Temps:          0       0       0       0       0       0       0       0       0       0       0       0       
      +0       0
  3187 ;;      Totals:         0       6       0       0       0       0       0       0       0       0       0       0       
      +0       0
  3188 ;;Total ram usage:        6 bytes
  3189 ;; Hardware stack levels required when called:    2
  3190 ;; This function calls:
  3191 ;;		_ADC_GetConversion
  3192 ;;		_DAC1_Load10bitInputData
  3193 ;;		_SYSTEM_Initialize
  3194 ;;		_ugrid_calc_ucp
  3195 ;; This function is called by:
  3196 ;;		Startup code after reset
  3197 ;; This function uses a non-reentrant model
  3198 ;;
  3199                           
  3200                           
  3201                           ;psect for function _main
  3202  0355                     _main:	
  3203                           
  3204                           ;main.c: 58: adc_result_t val_ug;
  3205                           ;main.c: 59: adc_result_t val_g;
  3206                           ;main.c: 60: uint16_t result;
  3207                           ;main.c: 62: SYSTEM_Initialize();
  3208                           
  3209                           ;incstack = 0
  3210                           ; Regs used in _main: [wreg-fsr1h+status,2+status,0+pclath+cstack]
  3211  0355  3182  22B2  3183   	fcall	_SYSTEM_Initialize
  3212  0358                     l140:	
  3213                           ;main.c: 79: while (1)
  3214                           
  3215                           
  3216                           ;main.c: 80: {
  3217                           ;main.c: 81: val_ug = ADC_GetConversion(channel_AN2);
  3218  0358  3002               	movlw	2
  3219  0359  3182  22C1  3183   	fcall	_ADC_GetConversion
  3220  035C  0871               	movf	?_ADC_GetConversion+1,w
  3221  035D  0020               	movlb	0	; select bank0
  3222  035E  00C5               	movwf	main@val_ug+1
  3223  035F  0870               	movf	?_ADC_GetConversion,w
  3224  0360  00C4               	movwf	main@val_ug
  3225                           
  3226                           ;main.c: 82: val_g = ADC_GetConversion(channel_AN4);
  3227  0361  3004               	movlw	4
  3228  0362  3182  22C1  3183   	fcall	_ADC_GetConversion
  3229  0365  0871               	movf	?_ADC_GetConversion+1,w
  3230  0366  0020               	movlb	0	; select bank0
  3231  0367  00C7               	movwf	main@val_g+1
  3232  0368  0870               	movf	?_ADC_GetConversion,w
  3233  0369  00C6               	movwf	main@val_g
  3234                           
  3235                           ;main.c: 84: result = ugrid_calc_ucp(val_ug, val_g);
  3236  036A  0845               	movf	main@val_ug+1,w
  3237  036B  00A1               	movwf	ugrid_calc_ucp@ug+1
  3238  036C  0844               	movf	main@val_ug,w
  3239  036D  00A0               	movwf	ugrid_calc_ucp@ug
  3240  036E  0847               	movf	main@val_g+1,w
  3241  036F  00A3               	movwf	ugrid_calc_ucp@g+1
  3242  0370  0846               	movf	main@val_g,w
  3243  0371  00A2               	movwf	ugrid_calc_ucp@g
  3244  0372  3183  23F6  3183   	fcall	_ugrid_calc_ucp
  3245  0375  0020               	movlb	0	; select bank0
  3246  0376  0821               	movf	?_ugrid_calc_ucp+1,w
  3247  0377  00C9               	movwf	main@result+1
  3248  0378  0820               	movf	?_ugrid_calc_ucp,w
  3249  0379  00C8               	movwf	main@result
  3250                           
  3251                           ;main.c: 85: DAC1_Load10bitInputData(result);
  3252  037A  0849               	movf	main@result+1,w
  3253  037B  00F1               	movwf	DAC1_Load10bitInputData@input10BitData+1
  3254  037C  0848               	movf	main@result,w
  3255  037D  00F0               	movwf	DAC1_Load10bitInputData@input10BitData
  3256  037E  3182  2285  3183   	fcall	_DAC1_Load10bitInputData
  3257  0381  2B58               	goto	l140
  3258  0382                     __end_of_main:	
  3259                           
  3260                           	psect	text1
  3261  03F6                     __ptext1:	
  3262 ;; *************** function _ugrid_calc_ucp *****************
  3263 ;; Defined at:
  3264 ;;		line 57 in file "ugrid.c"
  3265 ;; Parameters:    Size  Location     Type
  3266 ;;  ug              2    0[BANK0 ] unsigned short 
  3267 ;;  g               2    2[BANK0 ] unsigned short 
  3268 ;; Auto vars:     Size  Location     Type
  3269 ;;  ucp             2   32[BANK0 ] unsigned short 
  3270 ;;  ucp1            2   30[BANK0 ] unsigned short 
  3271 ;;  ucpm            2   28[BANK0 ] unsigned short 
  3272 ;;  kn              2   26[BANK0 ] unsigned short 
  3273 ;;  ucp2            2   24[BANK0 ] unsigned short 
  3274 ;;  ug_idx          1   35[BANK0 ] unsigned char 
  3275 ;;  g_idx           1   34[BANK0 ] unsigned char 
  3276 ;; Return value:  Size  Location     Type
  3277 ;;                  2    0[BANK0 ] unsigned int 
  3278 ;; Registers used:
  3279 ;;		wreg, fsr0l, fsr0h, fsr1l, fsr1h, status,2, status,0, pclath, cstack
  3280 ;; Tracked objects:
  3281 ;;		On entry : 0/0
  3282 ;;		On exit  : 0/0
  3283 ;;		Unchanged: 0/0
  3284 ;; Data sizes:     COMMON   BANK0   BANK1   BANK2   BANK3   BANK4   BANK5   BANK6   BANK7   BANK8   BANK9  BANK10  BANK1
      +1  BANK12
  3285 ;;      Params:         0       4       0       0       0       0       0       0       0       0       0       0       
      +0       0
  3286 ;;      Locals:         0      12       0       0       0       0       0       0       0       0       0       0       
      +0       0
  3287 ;;      Temps:          0      20       0       0       0       0       0       0       0       0       0       0       
      +0       0
  3288 ;;      Totals:         0      36       0       0       0       0       0       0       0       0       0       0       
      +0       0
  3289 ;;Total ram usage:       36 bytes
  3290 ;; Hardware stack levels used:    1
  3291 ;; Hardware stack levels required when called:    1
  3292 ;; This function calls:
  3293 ;;		___lwdiv
  3294 ;;		___wmul
  3295 ;;		_get_tab_idx
  3296 ;; This function is called by:
  3297 ;;		_main
  3298 ;; This function uses a non-reentrant model
  3299 ;;
  3300                           
  3301                           
  3302                           ;psect for function _ugrid_calc_ucp
  3303  03F6                     _ugrid_calc_ucp:	
  3304                           
  3305                           ;ugrid.c: 58: unsigned char g_idx, ug_idx;
  3306                           ;ugrid.c: 59: unsigned short int kn, ucp, ucpm, ucp1, ucp2;
  3307                           ;ugrid.c: 61: g_idx = get_tab_idx(g_idx_tab, g_idx_tab_size, g);
  3308                           
  3309                           ;incstack = 0
  3310                           ; Regs used in _ugrid_calc_ucp: [wreg-fsr1h+status,2+status,0+pclath+cstack]
  3311  03F6  0020               	movlb	0	; select bank0
  3312  03F7  084B               	movf	_g_idx_tab_size,w
  3313  03F8  00A4               	movwf	??_ugrid_calc_ucp
  3314  03F9  01A5               	clrf	??_ugrid_calc_ucp+1
  3315  03FA  0824               	movf	??_ugrid_calc_ucp,w
  3316  03FB  00F0               	movwf	get_tab_idx@tab_size
  3317  03FC  0825               	movf	??_ugrid_calc_ucp+1,w
  3318  03FD  00F1               	movwf	get_tab_idx@tab_size+1
  3319  03FE  0823               	movf	ugrid_calc_ucp@g+1,w
  3320  03FF  00F3               	movwf	get_tab_idx@val+1
  3321  0400  0822               	movf	ugrid_calc_ucp@g,w
  3322  0401  00F2               	movwf	get_tab_idx@val
  3323  0402  30A0               	movlw	(low (_g_idx_tab| 0))& (0+255)
  3324  0403  3183  232F  3183   	fcall	_get_tab_idx
  3325  0406  0020               	movlb	0	; select bank0
  3326  0407  00A6               	movwf	??_ugrid_calc_ucp+2
  3327  0408  0826               	movf	??_ugrid_calc_ucp+2,w
  3328  0409  00C2               	movwf	ugrid_calc_ucp@g_idx
  3329                           
  3330                           ;ugrid.c: 62: ug_idx = get_tab_idx(ug_idx_tab, ug_idx_tab_size, ug);
  3331  040A  084A               	movf	_ug_idx_tab_size,w
  3332  040B  00A4               	movwf	??_ugrid_calc_ucp
  3333  040C  01A5               	clrf	??_ugrid_calc_ucp+1
  3334  040D  0824               	movf	??_ugrid_calc_ucp,w
  3335  040E  00F0               	movwf	get_tab_idx@tab_size
  3336  040F  0825               	movf	??_ugrid_calc_ucp+1,w
  3337  0410  00F1               	movwf	get_tab_idx@tab_size+1
  3338  0411  0821               	movf	ugrid_calc_ucp@ug+1,w
  3339  0412  00F3               	movwf	get_tab_idx@val+1
  3340  0413  0820               	movf	ugrid_calc_ucp@ug,w
  3341  0414  00F2               	movwf	get_tab_idx@val
  3342  0415  30C0               	movlw	(low (_ug_idx_tab| 0))& (0+255)
  3343  0416  3183  232F  3183   	fcall	_get_tab_idx
  3344  0419  0020               	movlb	0	; select bank0
  3345  041A  00A6               	movwf	??_ugrid_calc_ucp+2
  3346  041B  0826               	movf	??_ugrid_calc_ucp+2,w
  3347  041C  00C3               	movwf	ugrid_calc_ucp@ug_idx
  3348                           
  3349                           ;ugrid.c: 67: kn = (ug - ug_idx_tab[ug_idx - 1]) / (ug_idx_tab[ug_idx] - ug_idx_tab[ug_i
      +                          dx -1]);
  3350  041D  3543               	lslf	ugrid_calc_ucp@ug_idx,w
  3351  041E  3EC0               	addlw	(low (_ug_idx_tab| 0))& (0+255)
  3352  041F  0086               	movwf	6
  3353  0420  0187               	clrf	7
  3354  0421  3543               	lslf	ugrid_calc_ucp@ug_idx,w
  3355  0422  3EFE               	addlw	254
  3356  0423  3EC0               	addlw	(low (_ug_idx_tab| 0))& (0+255)
  3357  0424  0084               	movwf	4
  3358  0425  0185               	clrf	5
  3359  0426  3F00               	moviw [0]fsr0
  3360  0427  00A4               	movwf	??_ugrid_calc_ucp
  3361  0428  3F01               	moviw [1]fsr0
  3362  0429  00A5               	movwf	??_ugrid_calc_ucp+1
  3363  042A  09A4               	comf	??_ugrid_calc_ucp,f
  3364  042B  09A5               	comf	??_ugrid_calc_ucp+1,f
  3365  042C  0AA4               	incf	??_ugrid_calc_ucp,f
  3366  042D  1903               	skipnz
  3367  042E  0AA5               	incf	??_ugrid_calc_ucp+1,f
  3368  042F  3F40               	moviw [0]fsr1
  3369  0430  0724               	addwf	??_ugrid_calc_ucp,w
  3370  0431  00F6               	movwf	___lwdiv@divisor
  3371  0432  3F41               	moviw [1]fsr1
  3372  0433  3D25               	addwfc	??_ugrid_calc_ucp+1,w
  3373  0434  00F7               	movwf	___lwdiv@divisor+1
  3374  0435  3543               	lslf	ugrid_calc_ucp@ug_idx,w
  3375  0436  3EFE               	addlw	254
  3376  0437  3EC0               	addlw	(low (_ug_idx_tab| 0))& (0+255)
  3377  0438  0086               	movwf	6
  3378  0439  0187               	clrf	7
  3379  043A  3F40               	moviw [0]fsr1
  3380  043B  00A6               	movwf	??_ugrid_calc_ucp+2
  3381  043C  3F41               	moviw [1]fsr1
  3382  043D  00A7               	movwf	??_ugrid_calc_ucp+3
  3383  043E  09A6               	comf	??_ugrid_calc_ucp+2,f
  3384  043F  09A7               	comf	??_ugrid_calc_ucp+3,f
  3385  0440  0AA6               	incf	??_ugrid_calc_ucp+2,f
  3386  0441  1903               	skipnz
  3387  0442  0AA7               	incf	??_ugrid_calc_ucp+3,f
  3388  0443  0820               	movf	ugrid_calc_ucp@ug,w
  3389  0444  0726               	addwf	??_ugrid_calc_ucp+2,w
  3390  0445  00F8               	movwf	___lwdiv@dividend
  3391  0446  0821               	movf	ugrid_calc_ucp@ug+1,w
  3392  0447  3D27               	addwfc	??_ugrid_calc_ucp+3,w
  3393  0448  00F9               	movwf	___lwdiv@dividend+1
  3394  0449  3183  2382  3183   	fcall	___lwdiv
  3395  044C  0877               	movf	?___lwdiv+1,w
  3396  044D  0020               	movlb	0	; select bank0
  3397  044E  00BB               	movwf	ugrid_calc_ucp@kn+1
  3398  044F  0876               	movf	?___lwdiv,w
  3399  0450  00BA               	movwf	ugrid_calc_ucp@kn
  3400                           
  3401                           ;ugrid.c: 68: ucp1 = ucp_tab[g_idx - 1, ug_idx -1] +
  3402                           ;ugrid.c: 69: (ucp_tab[g_idx - 1, ug_idx] - ucp_tab[g_idx - 1, ug_idx -1]) * kn;
  3403  0451  0843               	movf	ugrid_calc_ucp@ug_idx,w
  3404  0452  00A4               	movwf	??_ugrid_calc_ucp
  3405  0453  01A5               	clrf	??_ugrid_calc_ucp+1
  3406  0454  3005               	movlw	5
  3407  0455                     u385:	
  3408  0455  35A4               	lslf	??_ugrid_calc_ucp,f
  3409  0456  0DA5               	rlf	??_ugrid_calc_ucp+1,f
  3410  0457  0B89               	decfsz	9,f
  3411  0458  2C55               	goto	u385
  3412  0459  0824               	movf	??_ugrid_calc_ucp,w
  3413  045A  3ED0               	addlw	208
  3414  045B  00A6               	movwf	??_ugrid_calc_ucp+2
  3415  045C  3021               	movlw	33
  3416  045D  3D25               	addwfc	??_ugrid_calc_ucp+1,w
  3417  045E  00A7               	movwf	??_ugrid_calc_ucp+3
  3418  045F  09A6               	comf	??_ugrid_calc_ucp+2,f
  3419  0460  09A7               	comf	??_ugrid_calc_ucp+3,f
  3420  0461  0AA6               	incf	??_ugrid_calc_ucp+2,f
  3421  0462  1903               	skipnz
  3422  0463  0AA7               	incf	??_ugrid_calc_ucp+3,f
  3423  0464  0843               	movf	ugrid_calc_ucp@ug_idx,w
  3424  0465  00A8               	movwf	??_ugrid_calc_ucp+4
  3425  0466  01A9               	clrf	??_ugrid_calc_ucp+5
  3426  0467  3005               	movlw	5
  3427  0468                     u395:	
  3428  0468  35A8               	lslf	??_ugrid_calc_ucp+4,f
  3429  0469  0DA9               	rlf	??_ugrid_calc_ucp+5,f
  3430  046A  0B89               	decfsz	9,f
  3431  046B  2C68               	goto	u395
  3432  046C  0826               	movf	??_ugrid_calc_ucp+2,w
  3433  046D  0728               	addwf	??_ugrid_calc_ucp+4,w
  3434  046E  00AA               	movwf	??_ugrid_calc_ucp+6
  3435  046F  0827               	movf	??_ugrid_calc_ucp+3,w
  3436  0470  3D29               	addwfc	??_ugrid_calc_ucp+5,w
  3437  0471  00AB               	movwf	??_ugrid_calc_ucp+7
  3438  0472  082A               	movf	??_ugrid_calc_ucp+6,w
  3439  0473  3EF0               	addlw	240
  3440  0474  00AC               	movwf	??_ugrid_calc_ucp+8
  3441  0475  3021               	movlw	33
  3442  0476  3D2B               	addwfc	??_ugrid_calc_ucp+7,w
  3443  0477  00AD               	movwf	??_ugrid_calc_ucp+9
  3444  0478  0D2D               	rlf	??_ugrid_calc_ucp+9,w
  3445  0479  0C2D               	rrf	??_ugrid_calc_ucp+9,w
  3446  047A  00F1               	movwf	___wmul@multiplier+1
  3447  047B  0C2C               	rrf	??_ugrid_calc_ucp+8,w
  3448  047C  00F0               	movwf	___wmul@multiplier
  3449  047D  083B               	movf	ugrid_calc_ucp@kn+1,w
  3450  047E  00F3               	movwf	___wmul@multiplicand+1
  3451  047F  083A               	movf	ugrid_calc_ucp@kn,w
  3452  0480  00F2               	movwf	___wmul@multiplicand
  3453  0481  3182  22D7  3183   	fcall	___wmul
  3454  0484  0870               	movf	?___wmul,w
  3455  0485  0020               	movlb	0	; select bank0
  3456  0486  00AE               	movwf	??_ugrid_calc_ucp+10
  3457  0487  0871               	movf	?___wmul+1,w
  3458  0488  00AF               	movwf	??_ugrid_calc_ucp+11
  3459  0489  35AE               	lslf	??_ugrid_calc_ucp+10,f
  3460  048A  0DAF               	rlf	??_ugrid_calc_ucp+11,f
  3461  048B  0843               	movf	ugrid_calc_ucp@ug_idx,w
  3462  048C  00B0               	movwf	??_ugrid_calc_ucp+12
  3463  048D  01B1               	clrf	??_ugrid_calc_ucp+13
  3464  048E  3005               	movlw	5
  3465  048F                     u405:	
  3466  048F  35B0               	lslf	??_ugrid_calc_ucp+12,f
  3467  0490  0DB1               	rlf	??_ugrid_calc_ucp+13,f
  3468  0491  0B89               	decfsz	9,f
  3469  0492  2C8F               	goto	u405
  3470  0493  0830               	movf	??_ugrid_calc_ucp+12,w
  3471  0494  3EE0               	addlw	224
  3472  0495  00B2               	movwf	??_ugrid_calc_ucp+14
  3473  0496  30FF               	movlw	255
  3474  0497  3D31               	addwfc	??_ugrid_calc_ucp+13,w
  3475  0498  00B3               	movwf	??_ugrid_calc_ucp+15
  3476  0499  30F0               	movlw	240
  3477  049A  00B4               	movwf	??_ugrid_calc_ucp+16
  3478  049B  3021               	movlw	33
  3479  049C  00B5               	movwf	??_ugrid_calc_ucp+17
  3480  049D  0832               	movf	??_ugrid_calc_ucp+14,w
  3481  049E  0734               	addwf	??_ugrid_calc_ucp+16,w
  3482  049F  00B6               	movwf	??_ugrid_calc_ucp+18
  3483  04A0  0833               	movf	??_ugrid_calc_ucp+15,w
  3484  04A1  3D35               	addwfc	??_ugrid_calc_ucp+17,w
  3485  04A2  00B7               	movwf	??_ugrid_calc_ucp+19
  3486  04A3  082E               	movf	??_ugrid_calc_ucp+10,w
  3487  04A4  0736               	addwf	??_ugrid_calc_ucp+18,w
  3488  04A5  00BE               	movwf	ugrid_calc_ucp@ucp1
  3489  04A6  082F               	movf	??_ugrid_calc_ucp+11,w
  3490  04A7  3D37               	addwfc	??_ugrid_calc_ucp+19,w
  3491  04A8  00BF               	movwf	ugrid_calc_ucp@ucp1+1
  3492                           
  3493                           ;ugrid.c: 71: ucp2 = ucp_tab[g_idx, ug_idx -1] +
  3494                           ;ugrid.c: 72: (ucp_tab[g_idx, ug_idx] - ucp_tab[g_idx, ug_idx -1]) * kn;
  3495  04A9  0843               	movf	ugrid_calc_ucp@ug_idx,w
  3496  04AA  00A4               	movwf	??_ugrid_calc_ucp
  3497  04AB  01A5               	clrf	??_ugrid_calc_ucp+1
  3498  04AC  3005               	movlw	5
  3499  04AD                     u415:	
  3500  04AD  35A4               	lslf	??_ugrid_calc_ucp,f
  3501  04AE  0DA5               	rlf	??_ugrid_calc_ucp+1,f
  3502  04AF  0B89               	decfsz	9,f
  3503  04B0  2CAD               	goto	u415
  3504  04B1  0824               	movf	??_ugrid_calc_ucp,w
  3505  04B2  3ED0               	addlw	208
  3506  04B3  00A6               	movwf	??_ugrid_calc_ucp+2
  3507  04B4  3021               	movlw	33
  3508  04B5  3D25               	addwfc	??_ugrid_calc_ucp+1,w
  3509  04B6  00A7               	movwf	??_ugrid_calc_ucp+3
  3510  04B7  09A6               	comf	??_ugrid_calc_ucp+2,f
  3511  04B8  09A7               	comf	??_ugrid_calc_ucp+3,f
  3512  04B9  0AA6               	incf	??_ugrid_calc_ucp+2,f
  3513  04BA  1903               	skipnz
  3514  04BB  0AA7               	incf	??_ugrid_calc_ucp+3,f
  3515  04BC  0843               	movf	ugrid_calc_ucp@ug_idx,w
  3516  04BD  00A8               	movwf	??_ugrid_calc_ucp+4
  3517  04BE  01A9               	clrf	??_ugrid_calc_ucp+5
  3518  04BF  3005               	movlw	5
  3519  04C0                     u425:	
  3520  04C0  35A8               	lslf	??_ugrid_calc_ucp+4,f
  3521  04C1  0DA9               	rlf	??_ugrid_calc_ucp+5,f
  3522  04C2  0B89               	decfsz	9,f
  3523  04C3  2CC0               	goto	u425
  3524  04C4  0826               	movf	??_ugrid_calc_ucp+2,w
  3525  04C5  0728               	addwf	??_ugrid_calc_ucp+4,w
  3526  04C6  00AA               	movwf	??_ugrid_calc_ucp+6
  3527  04C7  0827               	movf	??_ugrid_calc_ucp+3,w
  3528  04C8  3D29               	addwfc	??_ugrid_calc_ucp+5,w
  3529  04C9  00AB               	movwf	??_ugrid_calc_ucp+7
  3530  04CA  082A               	movf	??_ugrid_calc_ucp+6,w
  3531  04CB  3EF0               	addlw	240
  3532  04CC  00AC               	movwf	??_ugrid_calc_ucp+8
  3533  04CD  3021               	movlw	33
  3534  04CE  3D2B               	addwfc	??_ugrid_calc_ucp+7,w
  3535  04CF  00AD               	movwf	??_ugrid_calc_ucp+9
  3536  04D0  0D2D               	rlf	??_ugrid_calc_ucp+9,w
  3537  04D1  0C2D               	rrf	??_ugrid_calc_ucp+9,w
  3538  04D2  00F1               	movwf	___wmul@multiplier+1
  3539  04D3  0C2C               	rrf	??_ugrid_calc_ucp+8,w
  3540  04D4  00F0               	movwf	___wmul@multiplier
  3541  04D5  083B               	movf	ugrid_calc_ucp@kn+1,w
  3542  04D6  00F3               	movwf	___wmul@multiplicand+1
  3543  04D7  083A               	movf	ugrid_calc_ucp@kn,w
  3544  04D8  00F2               	movwf	___wmul@multiplicand
  3545  04D9  3182  22D7  3183   	fcall	___wmul
  3546  04DC  0870               	movf	?___wmul,w
  3547  04DD  0020               	movlb	0	; select bank0
  3548  04DE  00AE               	movwf	??_ugrid_calc_ucp+10
  3549  04DF  0871               	movf	?___wmul+1,w
  3550  04E0  00AF               	movwf	??_ugrid_calc_ucp+11
  3551  04E1  35AE               	lslf	??_ugrid_calc_ucp+10,f
  3552  04E2  0DAF               	rlf	??_ugrid_calc_ucp+11,f
  3553  04E3  0843               	movf	ugrid_calc_ucp@ug_idx,w
  3554  04E4  00B0               	movwf	??_ugrid_calc_ucp+12
  3555  04E5  01B1               	clrf	??_ugrid_calc_ucp+13
  3556  04E6  3005               	movlw	5
  3557  04E7                     u435:	
  3558  04E7  35B0               	lslf	??_ugrid_calc_ucp+12,f
  3559  04E8  0DB1               	rlf	??_ugrid_calc_ucp+13,f
  3560  04E9  0B89               	decfsz	9,f
  3561  04EA  2CE7               	goto	u435
  3562  04EB  0830               	movf	??_ugrid_calc_ucp+12,w
  3563  04EC  3EE0               	addlw	224
  3564  04ED  00B2               	movwf	??_ugrid_calc_ucp+14
  3565  04EE  30FF               	movlw	255
  3566  04EF  3D31               	addwfc	??_ugrid_calc_ucp+13,w
  3567  04F0  00B3               	movwf	??_ugrid_calc_ucp+15
  3568  04F1  30F0               	movlw	240
  3569  04F2  00B4               	movwf	??_ugrid_calc_ucp+16
  3570  04F3  3021               	movlw	33
  3571  04F4  00B5               	movwf	??_ugrid_calc_ucp+17
  3572  04F5  0832               	movf	??_ugrid_calc_ucp+14,w
  3573  04F6  0734               	addwf	??_ugrid_calc_ucp+16,w
  3574  04F7  00B6               	movwf	??_ugrid_calc_ucp+18
  3575  04F8  0833               	movf	??_ugrid_calc_ucp+15,w
  3576  04F9  3D35               	addwfc	??_ugrid_calc_ucp+17,w
  3577  04FA  00B7               	movwf	??_ugrid_calc_ucp+19
  3578  04FB  082E               	movf	??_ugrid_calc_ucp+10,w
  3579  04FC  0736               	addwf	??_ugrid_calc_ucp+18,w
  3580  04FD  00B8               	movwf	ugrid_calc_ucp@ucp2
  3581  04FE  082F               	movf	??_ugrid_calc_ucp+11,w
  3582  04FF  3D37               	addwfc	??_ugrid_calc_ucp+19,w
  3583  0500  00B9               	movwf	ugrid_calc_ucp@ucp2+1
  3584                           
  3585                           ;ugrid.c: 74: ucp = ucp1 + (ucp2 - ucp1) * (g - g_idx_tab[g_idx - 1]) / (g_idx_tab[g_idx
      +                          ] - g_idx_tab[g_idx - 1]);
  3586  0501  3542               	lslf	ugrid_calc_ucp@g_idx,w
  3587  0502  3EA0               	addlw	(low (_g_idx_tab| 0))& (0+255)
  3588  0503  0086               	movwf	6
  3589  0504  0187               	clrf	7
  3590  0505  3542               	lslf	ugrid_calc_ucp@g_idx,w
  3591  0506  3EFE               	addlw	254
  3592  0507  3EA0               	addlw	(low (_g_idx_tab| 0))& (0+255)
  3593  0508  0084               	movwf	4
  3594  0509  0185               	clrf	5
  3595  050A  3F00               	moviw [0]fsr0
  3596  050B  00A4               	movwf	??_ugrid_calc_ucp
  3597  050C  3F01               	moviw [1]fsr0
  3598  050D  00A5               	movwf	??_ugrid_calc_ucp+1
  3599  050E  09A4               	comf	??_ugrid_calc_ucp,f
  3600  050F  09A5               	comf	??_ugrid_calc_ucp+1,f
  3601  0510  0AA4               	incf	??_ugrid_calc_ucp,f
  3602  0511  1903               	skipnz
  3603  0512  0AA5               	incf	??_ugrid_calc_ucp+1,f
  3604  0513  3F40               	moviw [0]fsr1
  3605  0514  0724               	addwf	??_ugrid_calc_ucp,w
  3606  0515  00F6               	movwf	___lwdiv@divisor
  3607  0516  3F41               	moviw [1]fsr1
  3608  0517  3D25               	addwfc	??_ugrid_calc_ucp+1,w
  3609  0518  00F7               	movwf	___lwdiv@divisor+1
  3610  0519  093E               	comf	ugrid_calc_ucp@ucp1,w
  3611  051A  00A6               	movwf	??_ugrid_calc_ucp+2
  3612  051B  093F               	comf	ugrid_calc_ucp@ucp1+1,w
  3613  051C  00A7               	movwf	??_ugrid_calc_ucp+3
  3614  051D  0AA6               	incf	??_ugrid_calc_ucp+2,f
  3615  051E  1903               	skipnz
  3616  051F  0AA7               	incf	??_ugrid_calc_ucp+3,f
  3617  0520  0838               	movf	ugrid_calc_ucp@ucp2,w
  3618  0521  0726               	addwf	??_ugrid_calc_ucp+2,w
  3619  0522  00F0               	movwf	___wmul@multiplier
  3620  0523  0839               	movf	ugrid_calc_ucp@ucp2+1,w
  3621  0524  3D27               	addwfc	??_ugrid_calc_ucp+3,w
  3622  0525  00F1               	movwf	___wmul@multiplier+1
  3623  0526  3542               	lslf	ugrid_calc_ucp@g_idx,w
  3624  0527  3EFE               	addlw	254
  3625  0528  3EA0               	addlw	(low (_g_idx_tab| 0))& (0+255)
  3626  0529  0086               	movwf	6
  3627  052A  0187               	clrf	7
  3628  052B  3F40               	moviw [0]fsr1
  3629  052C  00A8               	movwf	??_ugrid_calc_ucp+4
  3630  052D  3F41               	moviw [1]fsr1
  3631  052E  00A9               	movwf	??_ugrid_calc_ucp+5
  3632  052F  09A8               	comf	??_ugrid_calc_ucp+4,f
  3633  0530  09A9               	comf	??_ugrid_calc_ucp+5,f
  3634  0531  0AA8               	incf	??_ugrid_calc_ucp+4,f
  3635  0532  1903               	skipnz
  3636  0533  0AA9               	incf	??_ugrid_calc_ucp+5,f
  3637  0534  0822               	movf	ugrid_calc_ucp@g,w
  3638  0535  0728               	addwf	??_ugrid_calc_ucp+4,w
  3639  0536  00F2               	movwf	___wmul@multiplicand
  3640  0537  0823               	movf	ugrid_calc_ucp@g+1,w
  3641  0538  3D29               	addwfc	??_ugrid_calc_ucp+5,w
  3642  0539  00F3               	movwf	___wmul@multiplicand+1
  3643  053A  3182  22D7  3183   	fcall	___wmul
  3644  053D  0871               	movf	?___wmul+1,w
  3645  053E  00F9               	movwf	___lwdiv@dividend+1
  3646  053F  0870               	movf	?___wmul,w
  3647  0540  00F8               	movwf	___lwdiv@dividend
  3648  0541  3183  2382  3183   	fcall	___lwdiv
  3649  0544  0020               	movlb	0	; select bank0
  3650  0545  083E               	movf	ugrid_calc_ucp@ucp1,w
  3651  0546  0776               	addwf	?___lwdiv,w
  3652  0547  00C0               	movwf	ugrid_calc_ucp@ucp
  3653  0548  083F               	movf	ugrid_calc_ucp@ucp1+1,w
  3654  0549  3D77               	addwfc	?___lwdiv+1,w
  3655  054A  00C1               	movwf	ugrid_calc_ucp@ucp+1
  3656                           
  3657                           ;ugrid.c: 76: if(g <= 441 || ug <= 256)
  3658  054B  3001               	movlw	1
  3659  054C  0223               	subwf	ugrid_calc_ucp@g+1,w
  3660  054D  30BA               	movlw	186
  3661  054E  1903               	skipnz
  3662  054F  0222               	subwf	ugrid_calc_ucp@g,w
  3663  0550  1C03               	skipc
  3664  0551  2D59               	goto	l869
  3665  0552  3001               	movlw	1
  3666  0553  0221               	subwf	ugrid_calc_ucp@ug+1,w
  3667  0554  3001               	movlw	1
  3668  0555  1903               	skipnz
  3669  0556  0220               	subwf	ugrid_calc_ucp@ug,w
  3670  0557  1803               	skipnc
  3671  0558  2D5E               	goto	l873
  3672  0559                     l869:	
  3673                           
  3674                           ;ugrid.c: 77: return ucp;
  3675  0559  0841               	movf	ugrid_calc_ucp@ucp+1,w
  3676  055A  00A1               	movwf	?_ugrid_calc_ucp+1
  3677  055B  0840               	movf	ugrid_calc_ucp@ucp,w
  3678  055C  00A0               	movwf	?_ugrid_calc_ucp
  3679  055D  0008               	return
  3680  055E                     l873:	
  3681                           
  3682                           ;ugrid.c: 79: ucpm = ucpm_tab[g_idx - 1] + (ucpm_tab[g_idx ] - ucpm_tab[g_idx - 1]) *
  3683                           ;ugrid.c: 80: (ug - ug_idx_tab[ug_idx - 1]) / (ug_idx_tab[ug_idx] - ug_idx_tab[ug_idx - 
      +                          1]);
  3684  055E  3542               	lslf	ugrid_calc_ucp@g_idx,w
  3685  055F  3EFE               	addlw	254
  3686  0560  3E20               	addlw	(low (_ucpm_tab| (0+256)))& (0+255)
  3687  0561  0086               	movwf	6
  3688  0562  3001               	movlw	1	; select bank2/3
  3689  0563  0087               	movwf	7
  3690  0564  3543               	lslf	ugrid_calc_ucp@ug_idx,w
  3691  0565  3EFE               	addlw	254
  3692  0566  3EC0               	addlw	(low (_ug_idx_tab| 0))& (0+255)
  3693  0567  0084               	movwf	4
  3694  0568  0185               	clrf	5
  3695  0569  3F00               	moviw [0]fsr0
  3696  056A  00A4               	movwf	??_ugrid_calc_ucp
  3697  056B  3F01               	moviw [1]fsr0
  3698  056C  00A5               	movwf	??_ugrid_calc_ucp+1
  3699  056D  09A4               	comf	??_ugrid_calc_ucp,f
  3700  056E  09A5               	comf	??_ugrid_calc_ucp+1,f
  3701  056F  0AA4               	incf	??_ugrid_calc_ucp,f
  3702  0570  1903               	skipnz
  3703  0571  0AA5               	incf	??_ugrid_calc_ucp+1,f
  3704  0572  3543               	lslf	ugrid_calc_ucp@ug_idx,w
  3705  0573  3EC0               	addlw	(low (_ug_idx_tab| 0))& (0+255)
  3706  0574  0084               	movwf	4
  3707  0575  0185               	clrf	5
  3708  0576  3F00               	moviw [0]fsr0
  3709  0577  0724               	addwf	??_ugrid_calc_ucp,w
  3710  0578  00F6               	movwf	___lwdiv@divisor
  3711  0579  3F01               	moviw [1]fsr0
  3712  057A  3D25               	addwfc	??_ugrid_calc_ucp+1,w
  3713  057B  00F7               	movwf	___lwdiv@divisor+1
  3714  057C  3542               	lslf	ugrid_calc_ucp@g_idx,w
  3715  057D  3EFE               	addlw	254
  3716  057E  3E20               	addlw	(low (_ucpm_tab| (0+256)))& (0+255)
  3717  057F  0084               	movwf	4
  3718  0580  3001               	movlw	1	; select bank2/3
  3719  0581  0085               	movwf	5
  3720  0582  3F00               	moviw [0]fsr0
  3721  0583  00A6               	movwf	??_ugrid_calc_ucp+2
  3722  0584  3F01               	moviw [1]fsr0
  3723  0585  00A7               	movwf	??_ugrid_calc_ucp+3
  3724  0586  09A6               	comf	??_ugrid_calc_ucp+2,f
  3725  0587  09A7               	comf	??_ugrid_calc_ucp+3,f
  3726  0588  0AA6               	incf	??_ugrid_calc_ucp+2,f
  3727  0589  1903               	skipnz
  3728  058A  0AA7               	incf	??_ugrid_calc_ucp+3,f
  3729  058B  3542               	lslf	ugrid_calc_ucp@g_idx,w
  3730  058C  3E20               	addlw	(low (_ucpm_tab| (0+256)))& (0+255)
  3731  058D  0084               	movwf	4
  3732  058E  3001               	movlw	1	; select bank2/3
  3733  058F  0085               	movwf	5
  3734  0590  3F00               	moviw [0]fsr0
  3735  0591  0726               	addwf	??_ugrid_calc_ucp+2,w
  3736  0592  00F0               	movwf	___wmul@multiplier
  3737  0593  3F01               	moviw [1]fsr0
  3738  0594  3D27               	addwfc	??_ugrid_calc_ucp+3,w
  3739  0595  00F1               	movwf	___wmul@multiplier+1
  3740  0596  3543               	lslf	ugrid_calc_ucp@ug_idx,w
  3741  0597  3EFE               	addlw	254
  3742  0598  3EC0               	addlw	(low (_ug_idx_tab| 0))& (0+255)
  3743  0599  0084               	movwf	4
  3744  059A  0185               	clrf	5
  3745  059B  3F00               	moviw [0]fsr0
  3746  059C  00A8               	movwf	??_ugrid_calc_ucp+4
  3747  059D  3F01               	moviw [1]fsr0
  3748  059E  00A9               	movwf	??_ugrid_calc_ucp+5
  3749  059F  09A8               	comf	??_ugrid_calc_ucp+4,f
  3750  05A0  09A9               	comf	??_ugrid_calc_ucp+5,f
  3751  05A1  0AA8               	incf	??_ugrid_calc_ucp+4,f
  3752  05A2  1903               	skipnz
  3753  05A3  0AA9               	incf	??_ugrid_calc_ucp+5,f
  3754  05A4  0820               	movf	ugrid_calc_ucp@ug,w
  3755  05A5  0728               	addwf	??_ugrid_calc_ucp+4,w
  3756  05A6  00F2               	movwf	___wmul@multiplicand
  3757  05A7  0821               	movf	ugrid_calc_ucp@ug+1,w
  3758  05A8  3D29               	addwfc	??_ugrid_calc_ucp+5,w
  3759  05A9  00F3               	movwf	___wmul@multiplicand+1
  3760  05AA  3182  22D7  3183   	fcall	___wmul
  3761  05AD  0871               	movf	?___wmul+1,w
  3762  05AE  00F9               	movwf	___lwdiv@dividend+1
  3763  05AF  0870               	movf	?___wmul,w
  3764  05B0  00F8               	movwf	___lwdiv@dividend
  3765  05B1  3183  2382  3183   	fcall	___lwdiv
  3766  05B4  3F40               	moviw [0]fsr1
  3767  05B5  0776               	addwf	?___lwdiv,w
  3768  05B6  0020               	movlb	0	; select bank0
  3769  05B7  00BC               	movwf	ugrid_calc_ucp@ucpm
  3770  05B8  3F41               	moviw [1]fsr1
  3771  05B9  3D77               	addwfc	?___lwdiv+1,w
  3772  05BA  00BD               	movwf	ugrid_calc_ucp@ucpm+1
  3773                           
  3774                           ;ugrid.c: 81: if(ucp <= ucpm)
  3775  05BB  0841               	movf	ugrid_calc_ucp@ucp+1,w
  3776  05BC  023D               	subwf	ugrid_calc_ucp@ucpm+1,w
  3777  05BD  1D03               	skipz
  3778  05BE  2DC1               	goto	u465
  3779  05BF  0840               	movf	ugrid_calc_ucp@ucp,w
  3780  05C0  023C               	subwf	ugrid_calc_ucp@ucpm,w
  3781  05C1                     u465:	
  3782  05C1  1C03               	skipc
  3783  05C2  2DC7               	goto	l169
  3784                           
  3785                           ;ugrid.c: 82: ucp = ucpm;
  3786  05C3  083D               	movf	ugrid_calc_ucp@ucpm+1,w
  3787  05C4  00C1               	movwf	ugrid_calc_ucp@ucp+1
  3788  05C5  083C               	movf	ugrid_calc_ucp@ucpm,w
  3789  05C6  00C0               	movwf	ugrid_calc_ucp@ucp
  3790  05C7                     l169:	
  3791                           
  3792                           ;ugrid.c: 84: return ucp;
  3793  05C7  0841               	movf	ugrid_calc_ucp@ucp+1,w
  3794  05C8  00A1               	movwf	?_ugrid_calc_ucp+1
  3795  05C9  0840               	movf	ugrid_calc_ucp@ucp,w
  3796  05CA  00A0               	movwf	?_ugrid_calc_ucp
  3797  05CB  0008               	return
  3798  05CC                     __end_of_ugrid_calc_ucp:	
  3799                           
  3800                           	psect	text2
  3801  032F                     __ptext2:	
  3802 ;; *************** function _get_tab_idx *****************
  3803 ;; Defined at:
  3804 ;;		line 49 in file "ugrid.c"
  3805 ;; Parameters:    Size  Location     Type
  3806 ;;  tab             1    wreg     PTR unsigned short 
  3807 ;;		 -> ug_idx_tab(32), g_idx_tab(32), 
  3808 ;;  tab_size        2    0[COMMON] unsigned short 
  3809 ;;  val             2    2[COMMON] unsigned short 
  3810 ;; Auto vars:     Size  Location     Type
  3811 ;;  tab             1    7[COMMON] PTR unsigned short 
  3812 ;;		 -> ug_idx_tab(32), g_idx_tab(32), 
  3813 ;;  idx             1    8[COMMON] unsigned char 
  3814 ;; Return value:  Size  Location     Type
  3815 ;;                  1    wreg      unsigned char 
  3816 ;; Registers used:
  3817 ;;		wreg, fsr1l, fsr1h, status,2, status,0
  3818 ;; Tracked objects:
  3819 ;;		On entry : 0/0
  3820 ;;		On exit  : 0/0
  3821 ;;		Unchanged: 0/0
  3822 ;; Data sizes:     COMMON   BANK0   BANK1   BANK2   BANK3   BANK4   BANK5   BANK6   BANK7   BANK8   BANK9  BANK10  BANK1
      +1  BANK12
  3823 ;;      Params:         4       0       0       0       0       0       0       0       0       0       0       0       
      +0       0
  3824 ;;      Locals:         2       0       0       0       0       0       0       0       0       0       0       0       
      +0       0
  3825 ;;      Temps:          3       0       0       0       0       0       0       0       0       0       0       0       
      +0       0
  3826 ;;      Totals:         9       0       0       0       0       0       0       0       0       0       0       0       
      +0       0
  3827 ;;Total ram usage:        9 bytes
  3828 ;; Hardware stack levels used:    1
  3829 ;; This function calls:
  3830 ;;		Nothing
  3831 ;; This function is called by:
  3832 ;;		_ugrid_calc_ucp
  3833 ;; This function uses a non-reentrant model
  3834 ;;
  3835                           
  3836                           
  3837                           ;psect for function _get_tab_idx
  3838  032F                     _get_tab_idx:	
  3839                           
  3840                           ;incstack = 0
  3841                           ; Regs used in _get_tab_idx: [wreg+fsr1l+fsr1h+status,2+status,0]
  3842                           ;get_tab_idx@tab stored from wreg
  3843  032F  00F7               	movwf	get_tab_idx@tab
  3844                           
  3845                           ;ugrid.c: 50: unsigned char idx = 0;
  3846  0330  01F8               	clrf	get_tab_idx@idx
  3847  0331                     l787:	
  3848                           ;ugrid.c: 51: for(; idx < tab_size; idx++)
  3849                           
  3850  0331  0878               	movf	get_tab_idx@idx,w
  3851  0332  00F4               	movwf	??_get_tab_idx
  3852  0333  01F5               	clrf	??_get_tab_idx+1
  3853  0334  0871               	movf	get_tab_idx@tab_size+1,w
  3854  0335  0275               	subwf	??_get_tab_idx+1,w
  3855  0336  1D03               	skipz
  3856  0337  2B3A               	goto	u255
  3857  0338  0870               	movf	get_tab_idx@tab_size,w
  3858  0339  0274               	subwf	??_get_tab_idx,w
  3859  033A                     u255:	
  3860  033A  1803               	btfsc	3,0
  3861  033B  2B53               	goto	l789
  3862                           
  3863                           ;ugrid.c: 52: if(val < tab[idx])
  3864  033C  3578               	lslf	get_tab_idx@idx,w
  3865  033D  0777               	addwf	get_tab_idx@tab,w
  3866  033E  00F4               	movwf	??_get_tab_idx
  3867  033F  0874               	movf	??_get_tab_idx,w
  3868  0340  0086               	movwf	6
  3869  0341  0187               	clrf	7
  3870  0342  3F40               	moviw [0]fsr1
  3871  0343  00F5               	movwf	??_get_tab_idx+1
  3872  0344  3F41               	moviw [1]fsr1
  3873  0345  00F6               	movwf	??_get_tab_idx+2
  3874  0346  0876               	movf	??_get_tab_idx+2,w
  3875  0347  0273               	subwf	get_tab_idx@val+1,w
  3876  0348  1D03               	skipz
  3877  0349  2B4C               	goto	u245
  3878  034A  0875               	movf	??_get_tab_idx+1,w
  3879  034B  0272               	subwf	get_tab_idx@val,w
  3880  034C                     u245:	
  3881  034C  1C03               	btfss	3,0
  3882  034D  2B53               	goto	l789
  3883                           
  3884                           ;ugrid.c: 53: break;
  3885  034E  3001               	movlw	1
  3886  034F  00F4               	movwf	??_get_tab_idx
  3887  0350  0874               	movf	??_get_tab_idx,w
  3888  0351  07F8               	addwf	get_tab_idx@idx,f
  3889  0352  2B31               	goto	l787
  3890  0353                     l789:	
  3891                           
  3892                           ;ugrid.c: 54: return idx;
  3893  0353  0878               	movf	get_tab_idx@idx,w
  3894  0354  0008               	return
  3895  0355                     __end_of_get_tab_idx:	
  3896                           
  3897                           	psect	text3
  3898  02D7                     __ptext3:	
  3899 ;; *************** function ___wmul *****************
  3900 ;; Defined at:
  3901 ;;		line 15 in file "C:\Program Files (x86)\Microchip\xc8\v1.45\sources\common\Umul16.c"
  3902 ;; Parameters:    Size  Location     Type
  3903 ;;  multiplier      2    0[COMMON] unsigned int 
  3904 ;;  multiplicand    2    2[COMMON] unsigned int 
  3905 ;; Auto vars:     Size  Location     Type
  3906 ;;  product         2    4[COMMON] unsigned int 
  3907 ;; Return value:  Size  Location     Type
  3908 ;;                  2    0[COMMON] unsigned int 
  3909 ;; Registers used:
  3910 ;;		wreg, status,2, status,0
  3911 ;; Tracked objects:
  3912 ;;		On entry : 0/0
  3913 ;;		On exit  : 0/0
  3914 ;;		Unchanged: 0/0
  3915 ;; Data sizes:     COMMON   BANK0   BANK1   BANK2   BANK3   BANK4   BANK5   BANK6   BANK7   BANK8   BANK9  BANK10  BANK1
      +1  BANK12
  3916 ;;      Params:         4       0       0       0       0       0       0       0       0       0       0       0       
      +0       0
  3917 ;;      Locals:         2       0       0       0       0       0       0       0       0       0       0       0       
      +0       0
  3918 ;;      Temps:          0       0       0       0       0       0       0       0       0       0       0       0       
      +0       0
  3919 ;;      Totals:         6       0       0       0       0       0       0       0       0       0       0       0       
      +0       0
  3920 ;;Total ram usage:        6 bytes
  3921 ;; Hardware stack levels used:    1
  3922 ;; This function calls:
  3923 ;;		Nothing
  3924 ;; This function is called by:
  3925 ;;		_ugrid_calc_ucp
  3926 ;; This function uses a non-reentrant model
  3927 ;;
  3928                           
  3929                           
  3930                           ;psect for function ___wmul
  3931  02D7                     ___wmul:	
  3932                           
  3933                           ;incstack = 0
  3934                           ; Regs used in ___wmul: [wreg+status,2+status,0]
  3935  02D7  01F4               	clrf	___wmul@product
  3936  02D8  01F5               	clrf	___wmul@product+1
  3937  02D9                     l795:	
  3938  02D9  1C70               	btfss	___wmul@multiplier,0
  3939  02DA  2ADF               	goto	l173
  3940  02DB  0872               	movf	___wmul@multiplicand,w
  3941  02DC  07F4               	addwf	___wmul@product,f
  3942  02DD  0873               	movf	___wmul@multiplicand+1,w
  3943  02DE  3DF5               	addwfc	___wmul@product+1,f
  3944  02DF                     l173:	
  3945  02DF  3001               	movlw	1
  3946  02E0                     u275:	
  3947  02E0  35F2               	lslf	___wmul@multiplicand,f
  3948  02E1  0DF3               	rlf	___wmul@multiplicand+1,f
  3949  02E2  0B89               	decfsz	9,f
  3950  02E3  2AE0               	goto	u275
  3951  02E4  3001               	movlw	1
  3952  02E5                     u285:	
  3953  02E5  36F1               	lsrf	___wmul@multiplier+1,f
  3954  02E6  0CF0               	rrf	___wmul@multiplier,f
  3955  02E7  0B89               	decfsz	9,f
  3956  02E8  2AE5               	goto	u285
  3957  02E9  0870               	movf	___wmul@multiplier,w
  3958  02EA  0471               	iorwf	___wmul@multiplier+1,w
  3959  02EB  1D03               	btfss	3,2
  3960  02EC  2AD9               	goto	l795
  3961  02ED  0875               	movf	___wmul@product+1,w
  3962  02EE  00F1               	movwf	?___wmul+1
  3963  02EF  0874               	movf	___wmul@product,w
  3964  02F0  00F0               	movwf	?___wmul
  3965  02F1  0008               	return
  3966  02F2                     __end_of___wmul:	
  3967                           
  3968                           	psect	text4
  3969  0382                     __ptext4:	
  3970 ;; *************** function ___lwdiv *****************
  3971 ;; Defined at:
  3972 ;;		line 6 in file "C:\Program Files (x86)\Microchip\xc8\v1.45\sources\common\lwdiv.c"
  3973 ;; Parameters:    Size  Location     Type
  3974 ;;  divisor         2    6[COMMON] unsigned int 
  3975 ;;  dividend        2    8[COMMON] unsigned int 
  3976 ;; Auto vars:     Size  Location     Type
  3977 ;;  quotient        2   11[COMMON] unsigned int 
  3978 ;;  counter         1   13[COMMON] unsigned char 
  3979 ;; Return value:  Size  Location     Type
  3980 ;;                  2    6[COMMON] unsigned int 
  3981 ;; Registers used:
  3982 ;;		wreg, status,2, status,0
  3983 ;; Tracked objects:
  3984 ;;		On entry : 0/0
  3985 ;;		On exit  : 0/0
  3986 ;;		Unchanged: 0/0
  3987 ;; Data sizes:     COMMON   BANK0   BANK1   BANK2   BANK3   BANK4   BANK5   BANK6   BANK7   BANK8   BANK9  BANK10  BANK1
      +1  BANK12
  3988 ;;      Params:         4       0       0       0       0       0       0       0       0       0       0       0       
      +0       0
  3989 ;;      Locals:         3       0       0       0       0       0       0       0       0       0       0       0       
      +0       0
  3990 ;;      Temps:          1       0       0       0       0       0       0       0       0       0       0       0       
      +0       0
  3991 ;;      Totals:         8       0       0       0       0       0       0       0       0       0       0       0       
      +0       0
  3992 ;;Total ram usage:        8 bytes
  3993 ;; Hardware stack levels used:    1
  3994 ;; This function calls:
  3995 ;;		Nothing
  3996 ;; This function is called by:
  3997 ;;		_ugrid_calc_ucp
  3998 ;; This function uses a non-reentrant model
  3999 ;;
  4000                           
  4001                           
  4002                           ;psect for function ___lwdiv
  4003  0382                     ___lwdiv:	
  4004                           
  4005                           ;incstack = 0
  4006                           ; Regs used in ___lwdiv: [wreg+status,2+status,0]
  4007  0382  01FB               	clrf	___lwdiv@quotient
  4008  0383  01FC               	clrf	___lwdiv@quotient+1
  4009  0384  0876               	movf	___lwdiv@divisor,w
  4010  0385  0477               	iorwf	___lwdiv@divisor+1,w
  4011  0386  1903               	btfsc	3,2
  4012  0387  2BB1               	goto	l829
  4013  0388  01FD               	clrf	___lwdiv@counter
  4014  0389  0AFD               	incf	___lwdiv@counter,f
  4015  038A                     l817:	
  4016  038A  1BF7               	btfsc	___lwdiv@divisor+1,7
  4017  038B  2B96               	goto	l819
  4018  038C  3001               	movlw	1
  4019  038D                     u315:	
  4020  038D  35F6               	lslf	___lwdiv@divisor,f
  4021  038E  0DF7               	rlf	___lwdiv@divisor+1,f
  4022  038F  0B89               	decfsz	9,f
  4023  0390  2B8D               	goto	u315
  4024  0391  3001               	movlw	1
  4025  0392  00FA               	movwf	??___lwdiv
  4026  0393  087A               	movf	??___lwdiv,w
  4027  0394  07FD               	addwf	___lwdiv@counter,f
  4028  0395  2B8A               	goto	l817
  4029  0396                     l819:	
  4030  0396  3001               	movlw	1
  4031  0397                     u335:	
  4032  0397  35FB               	lslf	___lwdiv@quotient,f
  4033  0398  0DFC               	rlf	___lwdiv@quotient+1,f
  4034  0399  0B89               	decfsz	9,f
  4035  039A  2B97               	goto	u335
  4036  039B  0877               	movf	___lwdiv@divisor+1,w
  4037  039C  0279               	subwf	___lwdiv@dividend+1,w
  4038  039D  1D03               	skipz
  4039  039E  2BA1               	goto	u345
  4040  039F  0876               	movf	___lwdiv@divisor,w
  4041  03A0  0278               	subwf	___lwdiv@dividend,w
  4042  03A1                     u345:	
  4043  03A1  1C03               	skipc
  4044  03A2  2BA8               	goto	l825
  4045  03A3  0876               	movf	___lwdiv@divisor,w
  4046  03A4  02F8               	subwf	___lwdiv@dividend,f
  4047  03A5  0877               	movf	___lwdiv@divisor+1,w
  4048  03A6  3BF9               	subwfb	___lwdiv@dividend+1,f
  4049  03A7  147B               	bsf	___lwdiv@quotient,0
  4050  03A8                     l825:	
  4051  03A8  3001               	movlw	1
  4052  03A9                     u355:	
  4053  03A9  36F7               	lsrf	___lwdiv@divisor+1,f
  4054  03AA  0CF6               	rrf	___lwdiv@divisor,f
  4055  03AB  0B89               	decfsz	9,f
  4056  03AC  2BA9               	goto	u355
  4057  03AD  3001               	movlw	1
  4058  03AE  02FD               	subwf	___lwdiv@counter,f
  4059  03AF  1D03               	btfss	3,2
  4060  03B0  2B96               	goto	l819
  4061  03B1                     l829:	
  4062  03B1  087C               	movf	___lwdiv@quotient+1,w
  4063  03B2  00F7               	movwf	?___lwdiv+1
  4064  03B3  087B               	movf	___lwdiv@quotient,w
  4065  03B4  00F6               	movwf	?___lwdiv
  4066  03B5  0008               	return
  4067  03B6                     __end_of___lwdiv:	
  4068                           
  4069                           	psect	text5
  4070  02B2                     __ptext5:	
  4071 ;; *************** function _SYSTEM_Initialize *****************
  4072 ;; Defined at:
  4073 ;;		line 50 in file "mcc_generated_files/mcc.c"
  4074 ;; Parameters:    Size  Location     Type
  4075 ;;		None
  4076 ;; Auto vars:     Size  Location     Type
  4077 ;;		None
  4078 ;; Return value:  Size  Location     Type
  4079 ;;                  1    wreg      void 
  4080 ;; Registers used:
  4081 ;;		wreg, status,2, status,0, pclath, cstack
  4082 ;; Tracked objects:
  4083 ;;		On entry : 0/0
  4084 ;;		On exit  : 0/0
  4085 ;;		Unchanged: 0/0
  4086 ;; Data sizes:     COMMON   BANK0   BANK1   BANK2   BANK3   BANK4   BANK5   BANK6   BANK7   BANK8   BANK9  BANK10  BANK1
      +1  BANK12
  4087 ;;      Params:         0       0       0       0       0       0       0       0       0       0       0       0       
      +0       0
  4088 ;;      Locals:         0       0       0       0       0       0       0       0       0       0       0       0       
      +0       0
  4089 ;;      Temps:          0       0       0       0       0       0       0       0       0       0       0       0       
      +0       0
  4090 ;;      Totals:         0       0       0       0       0       0       0       0       0       0       0       0       
      +0       0
  4091 ;;Total ram usage:        0 bytes
  4092 ;; Hardware stack levels used:    1
  4093 ;; Hardware stack levels required when called:    1
  4094 ;; This function calls:
  4095 ;;		_ADC_Initialize
  4096 ;;		_DAC1_Initialize
  4097 ;;		_OSCILLATOR_Initialize
  4098 ;;		_PIN_MANAGER_Initialize
  4099 ;;		_WDT_Initialize
  4100 ;; This function is called by:
  4101 ;;		_main
  4102 ;; This function uses a non-reentrant model
  4103 ;;
  4104                           
  4105                           
  4106                           ;psect for function _SYSTEM_Initialize
  4107  02B2                     _SYSTEM_Initialize:	
  4108                           
  4109                           ;mcc.c: 53: PIN_MANAGER_Initialize();
  4110                           
  4111                           ;incstack = 0
  4112                           ; Regs used in _SYSTEM_Initialize: [wreg+status,2+status,0+pclath+cstack]
  4113  02B2  3182  22F2  3182   	fcall	_PIN_MANAGER_Initialize
  4114                           
  4115                           ;mcc.c: 54: OSCILLATOR_Initialize();
  4116  02B5  3182  2295  3182   	fcall	_OSCILLATOR_Initialize
  4117                           
  4118                           ;mcc.c: 55: WDT_Initialize();
  4119  02B8  3182  2281  3182   	fcall	_WDT_Initialize
  4120                           
  4121                           ;mcc.c: 56: DAC1_Initialize();
  4122  02BB  3182  228D  3182   	fcall	_DAC1_Initialize
  4123                           
  4124                           ;mcc.c: 57: ADC_Initialize();
  4125  02BE  3182  229D         	fcall	_ADC_Initialize
  4126  02C0  0008               	return
  4127  02C1                     __end_of_SYSTEM_Initialize:	
  4128                           
  4129                           	psect	text6
  4130  0281                     __ptext6:	
  4131 ;; *************** function _WDT_Initialize *****************
  4132 ;; Defined at:
  4133 ;;		line 72 in file "mcc_generated_files/mcc.c"
  4134 ;; Parameters:    Size  Location     Type
  4135 ;;		None
  4136 ;; Auto vars:     Size  Location     Type
  4137 ;;		None
  4138 ;; Return value:  Size  Location     Type
  4139 ;;                  1    wreg      void 
  4140 ;; Registers used:
  4141 ;;		wreg
  4142 ;; Tracked objects:
  4143 ;;		On entry : 0/0
  4144 ;;		On exit  : 0/0
  4145 ;;		Unchanged: 0/0
  4146 ;; Data sizes:     COMMON   BANK0   BANK1   BANK2   BANK3   BANK4   BANK5   BANK6   BANK7   BANK8   BANK9  BANK10  BANK1
      +1  BANK12
  4147 ;;      Params:         0       0       0       0       0       0       0       0       0       0       0       0       
      +0       0
  4148 ;;      Locals:         0       0       0       0       0       0       0       0       0       0       0       0       
      +0       0
  4149 ;;      Temps:          0       0       0       0       0       0       0       0       0       0       0       0       
      +0       0
  4150 ;;      Totals:         0       0       0       0       0       0       0       0       0       0       0       0       
      +0       0
  4151 ;;Total ram usage:        0 bytes
  4152 ;; Hardware stack levels used:    1
  4153 ;; This function calls:
  4154 ;;		Nothing
  4155 ;; This function is called by:
  4156 ;;		_SYSTEM_Initialize
  4157 ;; This function uses a non-reentrant model
  4158 ;;
  4159                           
  4160                           
  4161                           ;psect for function _WDT_Initialize
  4162  0281                     _WDT_Initialize:	
  4163                           
  4164                           ;mcc.c: 75: WDTCON = 0x16;
  4165                           
  4166                           ;incstack = 0
  4167                           ; Regs used in _WDT_Initialize: [wreg]
  4168  0281  3016               	movlw	22
  4169  0282  0021               	movlb	1	; select bank1
  4170  0283  0097               	movwf	23	;volatile
  4171  0284  0008               	return
  4172  0285                     __end_of_WDT_Initialize:	
  4173                           
  4174                           	psect	text7
  4175  02F2                     __ptext7:	
  4176 ;; *************** function _PIN_MANAGER_Initialize *****************
  4177 ;; Defined at:
  4178 ;;		line 57 in file "mcc_generated_files/pin_manager.c"
  4179 ;; Parameters:    Size  Location     Type
  4180 ;;		None
  4181 ;; Auto vars:     Size  Location     Type
  4182 ;;		None
  4183 ;; Return value:  Size  Location     Type
  4184 ;;                  1    wreg      void 
  4185 ;; Registers used:
  4186 ;;		wreg, status,2
  4187 ;; Tracked objects:
  4188 ;;		On entry : 0/0
  4189 ;;		On exit  : 0/0
  4190 ;;		Unchanged: 0/0
  4191 ;; Data sizes:     COMMON   BANK0   BANK1   BANK2   BANK3   BANK4   BANK5   BANK6   BANK7   BANK8   BANK9  BANK10  BANK1
      +1  BANK12
  4192 ;;      Params:         0       0       0       0       0       0       0       0       0       0       0       0       
      +0       0
  4193 ;;      Locals:         0       0       0       0       0       0       0       0       0       0       0       0       
      +0       0
  4194 ;;      Temps:          0       0       0       0       0       0       0       0       0       0       0       0       
      +0       0
  4195 ;;      Totals:         0       0       0       0       0       0       0       0       0       0       0       0       
      +0       0
  4196 ;;Total ram usage:        0 bytes
  4197 ;; Hardware stack levels used:    1
  4198 ;; This function calls:
  4199 ;;		Nothing
  4200 ;; This function is called by:
  4201 ;;		_SYSTEM_Initialize
  4202 ;; This function uses a non-reentrant model
  4203 ;;
  4204                           
  4205                           
  4206                           ;psect for function _PIN_MANAGER_Initialize
  4207  02F2                     _PIN_MANAGER_Initialize:	
  4208                           
  4209                           ;pin_manager.c: 62: LATA = 0x00;
  4210                           
  4211                           ;incstack = 0
  4212                           ; Regs used in _PIN_MANAGER_Initialize: [wreg+status,2]
  4213  02F2  0022               	movlb	2	; select bank2
  4214  02F3  018C               	clrf	12	;volatile
  4215                           
  4216                           ;pin_manager.c: 63: LATB = 0x00;
  4217  02F4  018D               	clrf	13	;volatile
  4218                           
  4219                           ;pin_manager.c: 64: LATC = 0x00;
  4220  02F5  018E               	clrf	14	;volatile
  4221                           
  4222                           ;pin_manager.c: 69: TRISA = 0x36;
  4223  02F6  3036               	movlw	54
  4224  02F7  0021               	movlb	1	; select bank1
  4225  02F8  008C               	movwf	12	;volatile
  4226                           
  4227                           ;pin_manager.c: 70: TRISB = 0xF0;
  4228  02F9  30F0               	movlw	240
  4229  02FA  008D               	movwf	13	;volatile
  4230                           
  4231                           ;pin_manager.c: 71: TRISC = 0xFF;
  4232  02FB  30FF               	movlw	255
  4233  02FC  008E               	movwf	14	;volatile
  4234                           
  4235                           ;pin_manager.c: 76: ANSELC = 0xCF;
  4236  02FD  30CF               	movlw	207
  4237  02FE  0023               	movlb	3	; select bank3
  4238  02FF  008E               	movwf	14	;volatile
  4239                           
  4240                           ;pin_manager.c: 77: ANSELB = 0xF0;
  4241  0300  30F0               	movlw	240
  4242  0301  008D               	movwf	13	;volatile
  4243                           
  4244                           ;pin_manager.c: 78: ANSELA = 0x17;
  4245  0302  3017               	movlw	23
  4246  0303  008C               	movwf	12	;volatile
  4247                           
  4248                           ;pin_manager.c: 83: WPUB = 0x00;
  4249  0304  0024               	movlb	4	; select bank4
  4250  0305  018D               	clrf	13	;volatile
  4251                           
  4252                           ;pin_manager.c: 84: WPUA = 0x00;
  4253  0306  018C               	clrf	12	;volatile
  4254                           
  4255                           ;pin_manager.c: 85: WPUC = 0x00;
  4256  0307  018E               	clrf	14	;volatile
  4257                           
  4258                           ;pin_manager.c: 86: OPTION_REGbits.nWPUEN = 1;
  4259  0308  0021               	movlb	1	; select bank1
  4260  0309  1795               	bsf	21,7	;volatile
  4261                           
  4262                           ;pin_manager.c: 91: ODCONA = 0x00;
  4263  030A  0025               	movlb	5	; select bank5
  4264  030B  018C               	clrf	12	;volatile
  4265                           
  4266                           ;pin_manager.c: 92: ODCONB = 0x00;
  4267  030C  018D               	clrf	13	;volatile
  4268                           
  4269                           ;pin_manager.c: 93: ODCONC = 0x00;
  4270  030D  018E               	clrf	14	;volatile
  4271  030E  0008               	return
  4272  030F                     __end_of_PIN_MANAGER_Initialize:	
  4273                           
  4274                           	psect	text8
  4275  0295                     __ptext8:	
  4276 ;; *************** function _OSCILLATOR_Initialize *****************
  4277 ;; Defined at:
  4278 ;;		line 60 in file "mcc_generated_files/mcc.c"
  4279 ;; Parameters:    Size  Location     Type
  4280 ;;		None
  4281 ;; Auto vars:     Size  Location     Type
  4282 ;;		None
  4283 ;; Return value:  Size  Location     Type
  4284 ;;                  1    wreg      void 
  4285 ;; Registers used:
  4286 ;;		wreg, status,2
  4287 ;; Tracked objects:
  4288 ;;		On entry : 0/0
  4289 ;;		On exit  : 0/0
  4290 ;;		Unchanged: 0/0
  4291 ;; Data sizes:     COMMON   BANK0   BANK1   BANK2   BANK3   BANK4   BANK5   BANK6   BANK7   BANK8   BANK9  BANK10  BANK1
      +1  BANK12
  4292 ;;      Params:         0       0       0       0       0       0       0       0       0       0       0       0       
      +0       0
  4293 ;;      Locals:         0       0       0       0       0       0       0       0       0       0       0       0       
      +0       0
  4294 ;;      Temps:          0       0       0       0       0       0       0       0       0       0       0       0       
      +0       0
  4295 ;;      Totals:         0       0       0       0       0       0       0       0       0       0       0       0       
      +0       0
  4296 ;;Total ram usage:        0 bytes
  4297 ;; Hardware stack levels used:    1
  4298 ;; This function calls:
  4299 ;;		Nothing
  4300 ;; This function is called by:
  4301 ;;		_SYSTEM_Initialize
  4302 ;; This function uses a non-reentrant model
  4303 ;;
  4304                           
  4305                           
  4306                           ;psect for function _OSCILLATOR_Initialize
  4307  0295                     _OSCILLATOR_Initialize:	
  4308                           
  4309                           ;mcc.c: 63: OSCCON = 0x58;
  4310                           
  4311                           ;incstack = 0
  4312                           ; Regs used in _OSCILLATOR_Initialize: [wreg+status,2]
  4313  0295  3058               	movlw	88
  4314  0296  0021               	movlb	1	; select bank1
  4315  0297  0099               	movwf	25	;volatile
  4316                           
  4317                           ;mcc.c: 65: OSCSTAT = 0x00;
  4318  0298  019A               	clrf	26	;volatile
  4319                           
  4320                           ;mcc.c: 67: OSCTUNE = 0x00;
  4321  0299  0198               	clrf	24	;volatile
  4322                           
  4323                           ;mcc.c: 69: BORCON = 0x00;
  4324  029A  0024               	movlb	4	; select bank4
  4325  029B  019D               	clrf	29	;volatile
  4326  029C  0008               	return
  4327  029D                     __end_of_OSCILLATOR_Initialize:	
  4328                           
  4329                           	psect	text9
  4330  028D                     __ptext9:	
  4331 ;; *************** function _DAC1_Initialize *****************
  4332 ;; Defined at:
  4333 ;;		line 68 in file "mcc_generated_files/dac1.c"
  4334 ;; Parameters:    Size  Location     Type
  4335 ;;		None
  4336 ;; Auto vars:     Size  Location     Type
  4337 ;;		None
  4338 ;; Return value:  Size  Location     Type
  4339 ;;                  1    wreg      void 
  4340 ;; Registers used:
  4341 ;;		wreg, status,2
  4342 ;; Tracked objects:
  4343 ;;		On entry : 0/0
  4344 ;;		On exit  : 0/0
  4345 ;;		Unchanged: 0/0
  4346 ;; Data sizes:     COMMON   BANK0   BANK1   BANK2   BANK3   BANK4   BANK5   BANK6   BANK7   BANK8   BANK9  BANK10  BANK1
      +1  BANK12
  4347 ;;      Params:         0       0       0       0       0       0       0       0       0       0       0       0       
      +0       0
  4348 ;;      Locals:         0       0       0       0       0       0       0       0       0       0       0       0       
      +0       0
  4349 ;;      Temps:          0       0       0       0       0       0       0       0       0       0       0       0       
      +0       0
  4350 ;;      Totals:         0       0       0       0       0       0       0       0       0       0       0       0       
      +0       0
  4351 ;;Total ram usage:        0 bytes
  4352 ;; Hardware stack levels used:    1
  4353 ;; This function calls:
  4354 ;;		Nothing
  4355 ;; This function is called by:
  4356 ;;		_SYSTEM_Initialize
  4357 ;; This function uses a non-reentrant model
  4358 ;;
  4359                           
  4360                           
  4361                           ;psect for function _DAC1_Initialize
  4362  028D                     _DAC1_Initialize:	
  4363                           
  4364                           ;dac1.c: 71: DAC1CON0 = 0xA0;
  4365                           
  4366                           ;incstack = 0
  4367                           ; Regs used in _DAC1_Initialize: [wreg+status,2]
  4368  028D  30A0               	movlw	160
  4369  028E  002B               	movlb	11	; select bank11
  4370  028F  0091               	movwf	17	;volatile
  4371                           
  4372                           ;dac1.c: 73: DAC1REFH = 0x00;
  4373  0290  0193               	clrf	19	;volatile
  4374                           
  4375                           ;dac1.c: 75: DAC1REFL = 0xCD;
  4376  0291  30CD               	movlw	205
  4377  0292  0092               	movwf	18	;volatile
  4378                           
  4379                           ;dac1.c: 77: (DACLDbits.DAC1LD = 1);
  4380  0293  1410               	bsf	16,0	;volatile
  4381  0294  0008               	return
  4382  0295                     __end_of_DAC1_Initialize:	
  4383                           
  4384                           	psect	text10
  4385  029D                     __ptext10:	
  4386 ;; *************** function _ADC_Initialize *****************
  4387 ;; Defined at:
  4388 ;;		line 64 in file "mcc_generated_files/adc.c"
  4389 ;; Parameters:    Size  Location     Type
  4390 ;;		None
  4391 ;; Auto vars:     Size  Location     Type
  4392 ;;		None
  4393 ;; Return value:  Size  Location     Type
  4394 ;;                  1    wreg      void 
  4395 ;; Registers used:
  4396 ;;		wreg, status,2
  4397 ;; Tracked objects:
  4398 ;;		On entry : 0/0
  4399 ;;		On exit  : 0/0
  4400 ;;		Unchanged: 0/0
  4401 ;; Data sizes:     COMMON   BANK0   BANK1   BANK2   BANK3   BANK4   BANK5   BANK6   BANK7   BANK8   BANK9  BANK10  BANK1
      +1  BANK12
  4402 ;;      Params:         0       0       0       0       0       0       0       0       0       0       0       0       
      +0       0
  4403 ;;      Locals:         0       0       0       0       0       0       0       0       0       0       0       0       
      +0       0
  4404 ;;      Temps:          0       0       0       0       0       0       0       0       0       0       0       0       
      +0       0
  4405 ;;      Totals:         0       0       0       0       0       0       0       0       0       0       0       0       
      +0       0
  4406 ;;Total ram usage:        0 bytes
  4407 ;; Hardware stack levels used:    1
  4408 ;; This function calls:
  4409 ;;		Nothing
  4410 ;; This function is called by:
  4411 ;;		_SYSTEM_Initialize
  4412 ;; This function uses a non-reentrant model
  4413 ;;
  4414                           
  4415                           
  4416                           ;psect for function _ADC_Initialize
  4417  029D                     _ADC_Initialize:	
  4418                           
  4419                           ;adc.c: 69: ADCON0 = 0x01;
  4420                           
  4421                           ;incstack = 0
  4422                           ; Regs used in _ADC_Initialize: [wreg+status,2]
  4423  029D  3001               	movlw	1
  4424  029E  0021               	movlb	1	; select bank1
  4425  029F  009D               	movwf	29	;volatile
  4426                           
  4427                           ;adc.c: 72: ADCON1 = 0x70;
  4428  02A0  3070               	movlw	112
  4429  02A1  009E               	movwf	30	;volatile
  4430                           
  4431                           ;adc.c: 75: ADCON2 = 0x00;
  4432  02A2  019F               	clrf	31	;volatile
  4433                           
  4434                           ;adc.c: 78: ADRESL = 0x00;
  4435  02A3  019B               	clrf	27	;volatile
  4436                           
  4437                           ;adc.c: 81: ADRESH = 0x00;
  4438  02A4  019C               	clrf	28	;volatile
  4439  02A5  0008               	return
  4440  02A6                     __end_of_ADC_Initialize:	
  4441                           
  4442                           	psect	text11
  4443  0285                     __ptext11:	
  4444 ;; *************** function _DAC1_Load10bitInputData *****************
  4445 ;; Defined at:
  4446 ;;		line 94 in file "mcc_generated_files/dac1.c"
  4447 ;; Parameters:    Size  Location     Type
  4448 ;;  input10BitDa    2    0[COMMON] unsigned int 
  4449 ;; Auto vars:     Size  Location     Type
  4450 ;;		None
  4451 ;; Return value:  Size  Location     Type
  4452 ;;                  1    wreg      void 
  4453 ;; Registers used:
  4454 ;;		wreg, status,2
  4455 ;; Tracked objects:
  4456 ;;		On entry : 0/0
  4457 ;;		On exit  : 0/0
  4458 ;;		Unchanged: 0/0
  4459 ;; Data sizes:     COMMON   BANK0   BANK1   BANK2   BANK3   BANK4   BANK5   BANK6   BANK7   BANK8   BANK9  BANK10  BANK1
      +1  BANK12
  4460 ;;      Params:         2       0       0       0       0       0       0       0       0       0       0       0       
      +0       0
  4461 ;;      Locals:         0       0       0       0       0       0       0       0       0       0       0       0       
      +0       0
  4462 ;;      Temps:          0       0       0       0       0       0       0       0       0       0       0       0       
      +0       0
  4463 ;;      Totals:         2       0       0       0       0       0       0       0       0       0       0       0       
      +0       0
  4464 ;;Total ram usage:        2 bytes
  4465 ;; Hardware stack levels used:    1
  4466 ;; This function calls:
  4467 ;;		Nothing
  4468 ;; This function is called by:
  4469 ;;		_main
  4470 ;; This function uses a non-reentrant model
  4471 ;;
  4472                           
  4473                           
  4474                           ;psect for function _DAC1_Load10bitInputData
  4475  0285                     _DAC1_Load10bitInputData:	
  4476                           
  4477                           ;dac1.c: 98: DAC1CON0bits.DAC1FM = 0;
  4478                           
  4479                           ;incstack = 0
  4480                           ; Regs used in _DAC1_Load10bitInputData: [wreg+status,2]
  4481  0285  002B               	movlb	11	; select bank11
  4482  0286  1311               	bcf	17,6	;volatile
  4483                           
  4484                           ;dac1.c: 101: DAC1REFL = (uint8_t) input10BitData;
  4485  0287  0870               	movf	DAC1_Load10bitInputData@input10BitData,w
  4486  0288  0092               	movwf	18	;volatile
  4487                           
  4488                           ;dac1.c: 102: DAC1REFH = (uint8_t)(input10BitData >> 8);
  4489  0289  0871               	movf	DAC1_Load10bitInputData@input10BitData+1,w
  4490  028A  0093               	movwf	19	;volatile
  4491                           
  4492                           ;dac1.c: 104: (DACLDbits.DAC1LD = 1);
  4493  028B  1410               	bsf	16,0	;volatile
  4494  028C  0008               	return
  4495  028D                     __end_of_DAC1_Load10bitInputData:	
  4496                           
  4497                           	psect	text12
  4498  02C1                     __ptext12:	
  4499 ;; *************** function _ADC_GetConversion *****************
  4500 ;; Defined at:
  4501 ;;		line 112 in file "mcc_generated_files/adc.c"
  4502 ;; Parameters:    Size  Location     Type
  4503 ;;  channel         1    wreg     enum E10357
  4504 ;; Auto vars:     Size  Location     Type
  4505 ;;  channel         1    3[COMMON] enum E10357
  4506 ;; Return value:  Size  Location     Type
  4507 ;;                  2    0[COMMON] unsigned int 
  4508 ;; Registers used:
  4509 ;;		wreg, status,2, status,0
  4510 ;; Tracked objects:
  4511 ;;		On entry : 0/0
  4512 ;;		On exit  : 0/0
  4513 ;;		Unchanged: 0/0
  4514 ;; Data sizes:     COMMON   BANK0   BANK1   BANK2   BANK3   BANK4   BANK5   BANK6   BANK7   BANK8   BANK9  BANK10  BANK1
      +1  BANK12
  4515 ;;      Params:         2       0       0       0       0       0       0       0       0       0       0       0       
      +0       0
  4516 ;;      Locals:         1       0       0       0       0       0       0       0       0       0       0       0       
      +0       0
  4517 ;;      Temps:          1       0       0       0       0       0       0       0       0       0       0       0       
      +0       0
  4518 ;;      Totals:         4       0       0       0       0       0       0       0       0       0       0       0       
      +0       0
  4519 ;;Total ram usage:        4 bytes
  4520 ;; Hardware stack levels used:    1
  4521 ;; This function calls:
  4522 ;;		Nothing
  4523 ;; This function is called by:
  4524 ;;		_main
  4525 ;; This function uses a non-reentrant model
  4526 ;;
  4527                           
  4528                           
  4529                           ;psect for function _ADC_GetConversion
  4530  02C1                     _ADC_GetConversion:	
  4531                           
  4532                           ;incstack = 0
  4533                           ; Regs used in _ADC_GetConversion: [wreg+status,2+status,0]
  4534                           ;ADC_GetConversion@channel stored from wreg
  4535  02C1  00F3               	movwf	ADC_GetConversion@channel
  4536                           
  4537                           ;adc.c: 115: ADCON0bits.CHS = channel;
  4538  02C2  0873               	movf	ADC_GetConversion@channel,w
  4539  02C3  00F2               	movwf	??_ADC_GetConversion
  4540  02C4  0DF2               	rlf	??_ADC_GetConversion,f
  4541  02C5  0DF2               	rlf	??_ADC_GetConversion,f
  4542  02C6  0021               	movlb	1	; select bank1
  4543  02C7  081D               	movf	29,w	;volatile
  4544  02C8  0672               	xorwf	??_ADC_GetConversion,w
  4545  02C9  3983               	andlw	-125
  4546  02CA  0672               	xorwf	??_ADC_GetConversion,w
  4547  02CB  009D               	movwf	29	;volatile
  4548                           
  4549                           ;adc.c: 118: ADCON0bits.ADON = 1;
  4550  02CC  141D               	bsf	29,0	;volatile
  4551                           
  4552                           ;adc.c: 120: _delay((unsigned long)((5)*(1000000/4000000.0)));
  4553  02CD  0000               	nop
  4554                           
  4555                           ;adc.c: 123: ADCON0bits.ADGO = 1;
  4556  02CE  0021               	movlb	1	; select bank1
  4557  02CF  149D               	bsf	29,1	;volatile
  4558  02D0                     l32:	
  4559                           ;adc.c: 127: {
  4560                           
  4561                           ;adc.c: 126: while (ADCON0bits.ADGO)
  4562                           
  4563  02D0  189D               	btfsc	29,1	;volatile
  4564  02D1  2AD0               	goto	l32
  4565                           
  4566                           ;adc.c: 128: }
  4567                           ;adc.c: 130: return ((ADRESH << 8) + ADRESL);
  4568  02D2  081C               	movf	28,w	;volatile
  4569  02D3  00F1               	movwf	?_ADC_GetConversion+1
  4570  02D4  081B               	movf	27,w	;volatile
  4571  02D5  00F0               	movwf	?_ADC_GetConversion
  4572  02D6  0008               	return
  4573  02D7                     __end_of_ADC_GetConversion:	
  4574  007E                     btemp	set	126	;btemp
  4575  007E                     wtemp0	set	126


Data Sizes:
    Strings     0
    Constant    0
    Data        610
    BSS         0
    Persistent  0
    Stack       0

Auto Spaces:
    Space          Size  Autos    Used
    COMMON           14     14      14
    BANK0            80     42      44
    BANK1            80      0      64
    BANK2            80      0      32
    BANK3            80      0       0
    BANK4            80      0       0
    BANK5            80      0       0
    BANK6            16      0       0
    BANK7             0      0       0
    BANK8             0      0       0
    BANK9             0      0       0
    BANK10            0      0       0
    BANK11            0      0       0
    BANK12            0      0       0

Pointer List with Targets:

    get_tab_idx@tab	PTR unsigned short  size(1) Largest target is 32
		 -> ug_idx_tab(BANK1[32]), g_idx_tab(BANK1[32]), 


Critical Paths under _main in COMMON

    _ugrid_calc_ucp->___lwdiv
    ___lwdiv->___wmul

Critical Paths under _main in BANK0

    _main->_ugrid_calc_ucp

Critical Paths under _main in BANK1

    None.

Critical Paths under _main in BANK2

    None.

Critical Paths under _main in BANK3

    None.

Critical Paths under _main in BANK4

    None.

Critical Paths under _main in BANK5

    None.

Critical Paths under _main in BANK6

    None.

Critical Paths under _main in BANK7

    None.

Critical Paths under _main in BANK8

    None.

Critical Paths under _main in BANK9

    None.

Critical Paths under _main in BANK10

    None.

Critical Paths under _main in BANK11

    None.

Critical Paths under _main in BANK12

    None.

Call Graph Tables:

 ---------------------------------------------------------------------------------
 (Depth) Function   	        Calls       Base Space   Used Autos Params    Refs
 ---------------------------------------------------------------------------------
 (0) _main                                                 6     6      0    2771
                                             36 BANK0      6     6      0
                  _ADC_GetConversion
            _DAC1_Load10bitInputData
                  _SYSTEM_Initialize
                     _ugrid_calc_ucp
 ---------------------------------------------------------------------------------
 (1) _ugrid_calc_ucp                                      36    32      4    2572
                                              0 BANK0     36    32      4
                            ___lwdiv
                             ___wmul
                        _get_tab_idx
 ---------------------------------------------------------------------------------
 (2) _get_tab_idx                                          9     5      4     516
                                              0 COMMON     9     5      4
 ---------------------------------------------------------------------------------
 (2) ___wmul                                               6     2      4     604
                                              0 COMMON     6     2      4
 ---------------------------------------------------------------------------------
 (2) ___lwdiv                                              8     4      4     546
                                              6 COMMON     8     4      4
                             ___wmul (ARG)
 ---------------------------------------------------------------------------------
 (1) _SYSTEM_Initialize                                    0     0      0       0
                     _ADC_Initialize
                    _DAC1_Initialize
              _OSCILLATOR_Initialize
             _PIN_MANAGER_Initialize
                     _WDT_Initialize
 ---------------------------------------------------------------------------------
 (2) _WDT_Initialize                                       0     0      0       0
 ---------------------------------------------------------------------------------
 (2) _PIN_MANAGER_Initialize                               0     0      0       0
 ---------------------------------------------------------------------------------
 (2) _OSCILLATOR_Initialize                                0     0      0       0
 ---------------------------------------------------------------------------------
 (2) _DAC1_Initialize                                      0     0      0       0
 ---------------------------------------------------------------------------------
 (2) _ADC_Initialize                                       0     0      0       0
 ---------------------------------------------------------------------------------
 (1) _DAC1_Load10bitInputData                              2     0      2     108
                                              0 COMMON     2     0      2
 ---------------------------------------------------------------------------------
 (1) _ADC_GetConversion                                    4     2      2      22
                                              0 COMMON     4     2      2
 ---------------------------------------------------------------------------------
 Estimated maximum stack depth 2
 ---------------------------------------------------------------------------------

 Call Graph Graphs:

 _main (ROOT)
   _ADC_GetConversion
   _DAC1_Load10bitInputData
   _SYSTEM_Initialize
     _ADC_Initialize
     _DAC1_Initialize
     _OSCILLATOR_Initialize
     _PIN_MANAGER_Initialize
     _WDT_Initialize
   _ugrid_calc_ucp
     ___lwdiv
       ___wmul (ARG)
     ___wmul
     _get_tab_idx

 Address spaces:
Name               Size   Autos  Total    Cost      Usage
BIGRAM             3F0      0       0       0        0.0%
NULL                 0      0       0       0        0.0%
CODE                 0      0       0       0        0.0%
BITCOMMON            E      0       0       1        0.0%
BITSFR0              0      0       0       1        0.0%
SFR0                 0      0       0       1        0.0%
COMMON               E      E       E       2      100.0%
BITSFR1              0      0       0       2        0.0%
SFR1                 0      0       0       2        0.0%
BITSFR2              0      0       0       3        0.0%
SFR2                 0      0       0       3        0.0%
STACK                0      0       0       3        0.0%
BITBANK0            50      0       0       4        0.0%
BITSFR3              0      0       0       4        0.0%
SFR3                 0      0       0       4        0.0%
BANK0               50     2A      2C       5       55.0%
BITSFR4              0      0       0       5        0.0%
SFR4                 0      0       0       5        0.0%
BITBANK1            50      0       0       6        0.0%
BITSFR5              0      0       0       6        0.0%
SFR5                 0      0       0       6        0.0%
BANK1               50      0      40       7       80.0%
BITSFR6              0      0       0       7        0.0%
SFR6                 0      0       0       7        0.0%
BITBANK2            50      0       0       8        0.0%
BITSFR7              0      0       0       8        0.0%
SFR7                 0      0       0       8        0.0%
BANK2               50      0      20       9       40.0%
BITSFR8              0      0       0       9        0.0%
SFR8                 0      0       0       9        0.0%
BITBANK3            50      0       0      10        0.0%
BITSFR9              0      0       0      10        0.0%
SFR9                 0      0       0      10        0.0%
BANK3               50      0       0      11        0.0%
BITSFR10             0      0       0      11        0.0%
SFR10                0      0       0      11        0.0%
BITBANK4            50      0       0      12        0.0%
BITSFR11             0      0       0      12        0.0%
SFR11                0      0       0      12        0.0%
BANK4               50      0       0      13        0.0%
BITSFR12             0      0       0      13        0.0%
SFR12                0      0       0      13        0.0%
BITBANK5            50      0       0      14        0.0%
BITSFR13             0      0       0      14        0.0%
SFR13                0      0       0      14        0.0%
BANK5               50      0       0      15        0.0%
BITSFR14             0      0       0      15        0.0%
SFR14                0      0       0      15        0.0%
BITBANK6            50      0       0      16        0.0%
BITSFR15             0      0       0      16        0.0%
SFR15                0      0       0      16        0.0%
BANK6               10      0       0      17        0.0%
BITSFR16             0      0       0      17        0.0%
SFR16                0      0       0      17        0.0%
BITBANK7            50      0       0      18        0.0%
BITSFR17             0      0       0      18        0.0%
SFR17                0      0       0      18        0.0%
BITSFR18             0      0       0      19        0.0%
SFR18                0      0       0      19        0.0%
BANK7                0      0       0      19        0.0%
BITSFR19             0      0       0      20        0.0%
SFR19                0      0       0      20        0.0%
ABS                  0      0      9A      20        0.0%
BITBANK8            50      0       0      21        0.0%
BITSFR20             0      0       0      21        0.0%
SFR20                0      0       0      21        0.0%
BITSFR21             0      0       0      22        0.0%
SFR21                0      0       0      22        0.0%
BANK8                0      0       0      22        0.0%
BITBANK9            50      0       0      23        0.0%
BITSFR22             0      0       0      23        0.0%
SFR22                0      0       0      23        0.0%
BITSFR23             0      0       0      24        0.0%
SFR23                0      0       0      24        0.0%
BANK9                0      0       0      24        0.0%
BITBANK10           50      0       0      25        0.0%
BITSFR24             0      0       0      25        0.0%
SFR24                0      0       0      25        0.0%
BITSFR25             0      0       0      26        0.0%
SFR25                0      0       0      26        0.0%
BANK10               0      0       0      26        0.0%
BITBANK11           50      0       0      27        0.0%
BITSFR26             0      0       0      27        0.0%
SFR26                0      0       0      27        0.0%
BITSFR27             0      0       0      28        0.0%
SFR27                0      0       0      28        0.0%
BANK11               0      0       0      28        0.0%
BITBANK12           30      0       0      29        0.0%
BITSFR28             0      0       0      29        0.0%
SFR28                0      0       0      29        0.0%
BITSFR29             0      0       0      30        0.0%
SFR29                0      0       0      30        0.0%
BANK12               0      0       0      30        0.0%
BITSFR30             0      0       0      31        0.0%
SFR30                0      0       0      31        0.0%
DATA                 0      0      9A      31        0.0%
BITSFR31             0      0       0      32        0.0%
SFR31                0      0       0      32        0.0%


Microchip Technology PIC Macro Assembler V1.45 build -152302408 
Symbol Table                                                                                   Thu Apr 19 00:52:25 2018

                     ugrid_calc_ucp@kn 003A                       ugrid_calc_ucp@ug 0020  
                          __CFG_CP$OFF 0000                                     l32 02D0  
                  ___wmul@multiplicand 0072                      ugrid_calc_ucp@ucp 0040  
                          __CFG_LVP$ON 0000                        _DAC1_Initialize 028D  
                                  l140 0358                                    l173 02DF  
                                  l169 05C7                                    l825 03A8  
                                  l817 038A                                    l819 0396  
                                  l829 03B1                                    l873 055E  
                                  l795 02D9                                    l787 0331  
                                  l789 0353                                    l869 0559  
                                  u315 038D                                    u245 034C  
                                  u405 048F                                    u335 0397  
                                  u255 033A                                    u415 04AD  
                                  u345 03A1                                    u425 04C0  
                                  u355 03A9                                    u275 02E0  
                                  u435 04E7                                    u285 02E5  
                                  u465 05C1                                    u385 0455  
                                  u395 0468                           __CFG_BORV$LO 0000  
                   ugrid_calc_ucp@ucp1 003E                     ugrid_calc_ucp@ucp2 0038  
                                  wreg 0009                     ugrid_calc_ucp@ucpm 003C  
                         __CFG_IESO$ON 0000                           __CFG_ZCD$OFF 0000  
                                 _LATA 010C                                   _LATB 010D  
                                 _LATC 010E                                   _WPUA 020C  
                                 _WPUB 020D                                   _WPUC 020E  
                         __CFG_WRT$OFF 0000                          __CFG_FCMEN$ON 0000  
                                 _main 0355                                   fsr0h 0005  
                                 fsr1h 0007                                   fsr0l 0004  
                                 fsr1l 0006                                   btemp 007E  
                  ugrid_calc_ucp@g_idx 0042                          __CFG_BOREN$ON 0000  
                                 start 0002              ??_DAC1_Load10bitInputData 0072  
                        __CFG_MCLRE$ON 0000                          __CFG_PLLEN$ON 0000  
       __size_of_OSCILLATOR_Initialize 0008          __end_of_OSCILLATOR_Initialize 029D  
                                ?_main 0070                          __CFG_WDTE$OFF 0000  
                      __end_of___lwdiv 03B6                                  _TRISA 008C  
                                _TRISB 008D                                  _TRISC 008E  
                       _WDT_Initialize 0281                                  status 0003  
                                wtemp0 007E                   ugrid_calc_ucp@ug_idx 0043  
                      __initialization 07CC                           __end_of_main 0382  
              __end_of_DAC1_Initialize 0295                         __CFG_LPBOR$OFF 0000  
                               ??_main 007E                 __end_of_WDT_Initialize 0285  
                               _ADCON0 009D                                 _ADCON1 009E  
                               _ADCON2 009F                                 _ADRESH 009C  
                               _ADRESL 009B                                 _ANSELA 018C  
                               _ANSELB 018D                                 _ANSELC 018E  
                               _BORCON 021D                                 _ODCONA 028C  
                               _ODCONB 028D                                 _ODCONC 028E  
                               _OSCCON 0099                                 _WDTCON 0097  
                       __CFG_PWRTE$OFF 0000                                 ___wmul 02D7  
                       __CFG_STVREN$ON 0000                   __size_of_get_tab_idx 0026  
                            ??___lwdiv 007A                           __pdataBIGRAM 21F0  
                       _g_idx_tab_size 004B                        ?_WDT_Initialize 0070  
                     ??_ugrid_calc_ucp 0024               ADC_GetConversion@channel 0073  
                    _SYSTEM_Initialize 02B2                __end_of__initialization 07FD  
                   ?_SYSTEM_Initialize 0070                         get_tab_idx@idx 0078  
                       get_tab_idx@tab 0077                         get_tab_idx@val 0072  
                       __pcstackCOMMON 0070                           __pidataBANK0 027F  
                         __pidataBANK1 03B6                           __pidataBANK2 030F  
                  ??_SYSTEM_Initialize 0070                       ?_DAC1_Initialize 0070  
                       _OPTION_REGbits 0095              __end_of_SYSTEM_Initialize 02C1  
DAC1_Load10bitInputData@input10BitData 0070                             __pmaintext 0355  
                              ?___wmul 0070                        __CFG_PPS1WAY$ON 0000  
              __size_of_ADC_Initialize 0009                                _OSCSTAT 009A  
                              _OSCTUNE 0098                              _DACLDbits 0590  
                      __size_of___wmul 001B                                ___lwdiv 0382  
                              __ptext1 03F6                                __ptext2 032F  
                              __ptext3 02D7                                __ptext4 0382  
                              __ptext5 02B2                                __ptext6 0281  
                              __ptext7 02F2                                __ptext8 0295  
                              __ptext9 028D                  _OSCILLATOR_Initialize 0295  
             ??_PIN_MANAGER_Initialize 0070                    get_tab_idx@tab_size 0070  
                              _ucp_tab 21F0             __size_of_SYSTEM_Initialize 000F  
                 end_of_initialization 07FD               ?_DAC1_Load10bitInputData 0070  
                              init_ram 02A6                                initloop 02A7  
                           _ug_idx_tab 00C0                       ??_WDT_Initialize 0070  
                     __CFG_FOSC$INTOSC 0000                        ugrid_calc_ucp@g 0022  
                           main@val_ug 0044                             main@result 0048  
                        ??_get_tab_idx 0074                          __pidataBIGRAM 05CC  
                       __end_of___wmul 02F2                         _ADC_Initialize 029D  
               ?_OSCILLATOR_Initialize 0070                    start_initialization 07CC  
      __size_of_PIN_MANAGER_Initialize 001D        __end_of_DAC1_Load10bitInputData 028D  
                             ??___wmul 0074                 __end_of_ADC_Initialize 02A6  
                          __pdataBANK0 004A                            __pdataBANK1 00A0  
                          __pdataBANK2 0120                    __end_of_get_tab_idx 0355  
             __size_of_DAC1_Initialize 0008                              ___latbits 0002  
                        __pcstackBANK0 0020                        _ug_idx_tab_size 004A  
              __size_of_ugrid_calc_ucp 01D6                              _g_idx_tab 00A0  
                     ___lwdiv@dividend 0078                 _PIN_MANAGER_Initialize 02F2  
                             ?___lwdiv 0076                        ?_ADC_Initialize 0070  
                             _DAC1CON0 0591                               _DAC1REFH 0593  
                             _DAC1REFL 0592                       ___lwdiv@quotient 007B  
                       ___wmul@product 0074                            _get_tab_idx 032F  
     __size_of_DAC1_Load10bitInputData 0008                             _ADCON0bits 009D  
                    ___wmul@multiplier 0070                              main@val_g 0046  
                    ??_DAC1_Initialize 0070                      _ADC_GetConversion 02C1  
              ??_OSCILLATOR_Initialize 0070                     ?_ADC_GetConversion 0070  
                     __size_of___lwdiv 0034                    ??_ADC_GetConversion 0072  
                      ___lwdiv@divisor 0076                        ___lwdiv@counter 007D  
                             __ptext10 029D                               __ptext11 0285  
                             __ptext12 02C1                          __size_of_main 002D  
                       _ugrid_calc_ucp 03F6              __end_of_ADC_GetConversion 02D7  
                             _ucpm_tab 0120                __size_of_WDT_Initialize 0004  
               __end_of_ugrid_calc_ucp 05CC                           _DAC1CON0bits 0591  
              ?_PIN_MANAGER_Initialize 0070                      __CFG_CLKOUTEN$OFF 0000  
                     ??_ADC_Initialize 0070                _DAC1_Load10bitInputData 0285  
       __end_of_PIN_MANAGER_Initialize 030F                        ?_ugrid_calc_ucp 0020  
           __size_of_ADC_GetConversion 0016                           ?_get_tab_idx 0070  
